 Winrd

 Timestamp is 4461f1b2 (Wed May 10 16:59:14 2006)

 Preferred load address is 00400000

 Start         Length     Name                   Class
 0001:00000000 0003c8eeH .text                   CODE
 0001:0003c8f0 000011a4H .text$x                 CODE
 0002:00000000 000004c0H .idata$5                DATA
 0002:000004c0 0000809cH .rdata                  DATA
 0002:00008560 000014e0H .xdata$x                DATA
 0002:00009a40 000000f0H .idata$2                DATA
 0002:00009b30 00000014H .idata$3                DATA
 0002:00009b44 000004c0H .idata$4                DATA
 0002:0000a004 0000134cH .idata$6                DATA
 0002:0000b350 00000000H .edata                  DATA
 0003:00000000 00000004H .CRT$XCA                DATA
 0003:00000004 00000088H .CRT$XCU                DATA
 0003:0000008c 00000004H .CRT$XCZ                DATA
 0003:00000090 00000004H .CRT$XIA                DATA
 0003:00000094 00000004H .CRT$XIZ                DATA
 0003:000000a0 00000c54H .data                   DATA
 0003:00000cf8 00000ef4H .bss                    DATA
 0004:00000000 00000418H .rsrc$01                DATA
 0004:00000420 00162500H .rsrc$02                DATA

  Address         Publics by Value              Rva+Base     Lib:Object

 0001:00000000       _deskey                    00401000 f   d3des.obj
 0001:00000360       _cpkey                     00401360 f   d3des.obj
 0001:000003b0       _usekey                    004013b0 f   d3des.obj
 0001:00000400       _des                       00401400 f   d3des.obj
 0001:00000a70       ??0Log@@QAE@HHPAD_N@Z      00401a70 f   Log.obj
 0001:00000af0       ??_ELog@@UAEPAXI@Z         00401af0 f i Log.obj
 0001:00000af0       ??_GLog@@UAEPAXI@Z         00401af0 f i Log.obj
 0001:00000b30       ?SetMode@Log@@QAEXH@Z      00401b30 f   Log.obj
 0001:00000bd0       ?GetMode@Log@@QAEHXZ       00401bd0 f   Log.obj
 0001:00000bf0       ?SetLevel@Log@@QAEXH@Z     00401bf0 f   Log.obj
 0001:00000c10       ?GetLevel@Log@@QAEHXZ      00401c10 f   Log.obj
 0001:00000c30       ?SetFile@Log@@QAEXPAD_N@Z  00401c30 f   Log.obj
 0001:00000ca0       ?OpenFile@Log@@AAEXXZ      00401ca0 f   Log.obj
 0001:00000e00       ?CloseFile@Log@@AAEXXZ     00401e00 f   Log.obj
 0001:00000e40       ?ReallyPrint@Log@@AAEXPAD0@Z 00401e40 f   Log.obj
 0001:00000f50       ?ReallyPrintLine@Log@@AAEXPAD@Z 00401f50 f i Log.obj
 0001:00000ff0       ??1Log@@UAE@XZ             00401ff0 f   Log.obj
 0001:00001030       ?Print@Log@@QAAXHPADZZ     00402030 f i Log.obj
 0001:00001070       ??0rdAbout@@QAE@XZ         00402070 f   rdAbout.obj
 0001:00001090       ??1rdAbout@@QAE@XZ         00402090 f   rdAbout.obj
 0001:000010b0       ?Init@rdAbout@@QAEHXZ      004020b0 f   rdAbout.obj
 0001:000010d0       ?Show@rdAbout@@QAEXH@Z     004020d0 f   rdAbout.obj
 0001:00001110       ?DialogProc@rdAbout@@SGHPAUHWND__@@IIJ@Z 00402110 f   rdAbout.obj
 0001:000011e0       ??0rdAcceptDialog@@QAE@IHHPBD@Z 004021e0 f   rdAcceptDialog.obj
 0001:00001230       ??_GrdAcceptDialog@@UAEPAXI@Z 00402230 f i rdAcceptDialog.obj
 0001:00001230       ??_ErdAcceptDialog@@UAEPAXI@Z 00402230 f i rdAcceptDialog.obj
 0001:00001270       ??1rdAcceptDialog@@UAE@XZ  00402270 f   rdAcceptDialog.obj
 0001:000012b0       ?DoDialog@rdAcceptDialog@@QAEHXZ 004022b0 f   rdAcceptDialog.obj
 0001:00001330       ?rdAcceptDlgProc@rdAcceptDialog@@CGHPAUHWND__@@IIJ@Z 00402330 f   rdAcceptDialog.obj
 0001:000016e0       ??0rdAdvancedProperties@@QAE@XZ 004026e0 f   rdAdvancedProperties.obj
 0001:00001710       ??1rdAdvancedProperties@@QAE@XZ 00402710 f   rdAdvancedProperties.obj
 0001:00001730       ?Init@rdAdvancedProperties@@QAEHPAVrdServer@@@Z 00402730 f   rdAdvancedProperties.obj
 0001:00001760       ?Show@rdAdvancedProperties@@QAEXHH@Z 00402760 f   rdAdvancedProperties.obj
 0001:00001970       ?DialogProc@rdAdvancedProperties@@SGHPAUHWND__@@IIJ@Z 00402970 f   rdAdvancedProperties.obj
 0001:000022d0       ?LoadInt@rdAdvancedProperties@@IAEJPAUHKEY__@@PBDJ@Z 004032d0 f   rdAdvancedProperties.obj
 0001:00002340       ?LoadStringA@rdAdvancedProperties@@IAEPADPAUHKEY__@@PBD@Z 00403340 f   rdAdvancedProperties.obj
 0001:00002410       ?Load@rdAdvancedProperties@@QAEXH@Z 00403410 f   rdAdvancedProperties.obj
 0001:000028a0       ?LoadUserPrefs@rdAdvancedProperties@@IAEXPAUHKEY__@@@Z 004038a0 f   rdAdvancedProperties.obj
 0001:000029a0       ?ApplyUserPrefs@rdAdvancedProperties@@IAEXXZ 004039a0 f   rdAdvancedProperties.obj
 0001:00002a20       ?SaveInt@rdAdvancedProperties@@IAEXPAUHKEY__@@PBDJ@Z 00403a20 f   rdAdvancedProperties.obj
 0001:00002a50       ?Save@rdAdvancedProperties@@QAEXXZ 00403a50 f   rdAdvancedProperties.obj
 0001:00002ce0       ?SaveUserPrefs@rdAdvancedProperties@@IAEXPAUHKEY__@@@Z 00403ce0 f   rdAdvancedProperties.obj
 0001:00002da0       _rdEncryptPasswd           00403da0 f   rdauth.obj
 0001:00002e20       _rdDecryptPasswd           00403e20 f   rdauth.obj
 0001:00002e70       _rdRandomBytes             00403e70 f   rdauth.obj
 0001:00002ed0       _rdEncryptBytes            00403ed0 f   rdauth.obj
 0001:00002f70       ??0rdBuffer@@QAE@PAVrdDesktop@@@Z 00403f70 f   rdBuffer.obj
 0001:00003060       ??1rdBuffer@@QAE@XZ        00404060 f   rdBuffer.obj
 0001:000032a0       ?GetSize@rdBuffer@@QAE?AUtagRECT@@XZ 004042a0 f   rdBuffer.obj
 0001:00003300       ?GetLocalFormat@rdBuffer@@QAE?AU_rfbPixelFormat@@XZ 00404300 f   rdBuffer.obj
 0001:00003340       ?GetClientBuffer@rdBuffer@@QAEPAEXZ 00404340 f   rdBuffer.obj
 0001:00003360       ?GetRemotePalette@rdBuffer@@QAEHPAUtagRGBQUAD@@I@Z 00404360 f   rdBuffer.obj
 0001:000033b0       ?CheckBuffer@rdBuffer@@QAEHXZ 004043b0 f   rdBuffer.obj
 0001:000036d0       ?GetChangedRegion@rdBuffer@@QAEXAAVrdRegion@@AAUtagRECT@@@Z 004046d0 f   rdBuffer.obj
 0001:00003990       ?GetNumCodedRects@rdBuffer@@QAEIAAUtagRECT@@@Z 00404990 f   rdBuffer.obj
 0001:000039c0       ?GrabRect@rdBuffer@@QAEXAAUtagRECT@@@Z 004049c0 f   rdBuffer.obj
 0001:00003a00       ?CopyRect@rdBuffer@@QAEXAAUtagRECT@@AAUtagPOINT@@@Z 00404a00 f   rdBuffer.obj
 0001:00003b90       ?GrabMouse@rdBuffer@@QAE?AUtagRECT@@XZ 00404b90 f   rdBuffer.obj
 0001:00003c20       ?SetClientFormat@rdBuffer@@QAEHAAU_rfbPixelFormat@@@Z 00404c20 f   rdBuffer.obj
 0001:00003ca0       ?SetEncoding@rdBuffer@@QAEHK@Z 00404ca0 f   rdBuffer.obj
 0001:000041e0       ?SetCompressLevel@rdBuffer@@QAEXH@Z 004051e0 f   rdBuffer.obj
 0001:00004240       ?SetQualityLevel@rdBuffer@@QAEXH@Z 00405240 f   rdBuffer.obj
 0001:000042a0       ?EnableXCursor@rdBuffer@@QAEXH@Z 004052a0 f   rdBuffer.obj
 0001:000042f0       ?EnableRichCursor@rdBuffer@@QAEXH@Z 004052f0 f   rdBuffer.obj
 0001:00004340       ?EnableLastRect@rdBuffer@@QAEXH@Z 00405340 f   rdBuffer.obj
 0001:00004380       ?Clear@rdBuffer@@QAEXAAUtagRECT@@@Z 00405380 f   rdBuffer.obj
 0001:000044b0       ?TranslateRect@rdBuffer@@QAEIABUtagRECT@@PAVVSocket@@@Z 004054b0 f   rdBuffer.obj
 0001:00004500       ?FastCheckMainbuffer@rdBuffer@@IAEHXZ 00405500 f i rdBuffer.obj
 0001:00004540       ?IsCursorUpdatePending@rdBuffer@@QAEHXZ 00405540 f   rdBuffer.obj
 0001:000045a0       ?SendCursorShape@rdBuffer@@QAEHPAVVSocket@@@Z 004055a0 f   rdBuffer.obj
 0001:000045d0       ?SendEmptyCursorShape@rdBuffer@@QAEHPAVVSocket@@@Z 004055d0 f   rdBuffer.obj
 0001:00004600       ?EnableXCursor@rdEncoder@@QAEXH@Z 00405600 f i rdBuffer.obj
 0001:00004620       ?EnableRichCursor@rdEncoder@@QAEXH@Z 00405620 f i rdBuffer.obj
 0001:00004640       ?EnableLastRect@rdEncoder@@QAEXH@Z 00405640 f i rdBuffer.obj
 0001:00004660       ?GetCursor@rdDesktop@@QAEPAUHICON__@@XZ 00405660 f i rdBuffer.obj
 0001:00004680       ?OptimisedBlitBuffer@rdDesktop@@QAEPAXXZ 00405680 f i rdBuffer.obj
 0001:000046a0       ??1rdClientThread@@MAE@XZ  004056a0 f   rdClient.obj
 0001:00004730       ??_ErdClientThread@@MAEPAXI@Z 00405730 f i rdClient.obj
 0001:00004730       ??_GrdClientThread@@MAEPAXI@Z 00405730 f i rdClient.obj
 0001:00004770       ??_GrdClient@@QAEPAXI@Z    00405770 f i rdClient.obj
 0001:000047b0       ?Init@rdClientThread@@UAEHPAVrdClient@@PAVrdServer@@PAVVSocket@@HH@Z 004057b0 f   rdClient.obj
 0001:00004800       ?InitVersion@rdClientThread@@UAEHXZ 00405800 f   rdClient.obj
 0001:000048a0       ?InitAuthenticate@rdClientThread@@UAEHXZ 004058a0 f   rdClient.obj
 0001:000053f0       ?ClearKeyState@@YAXE@Z     004063f0 f   rdClient.obj
 0001:00005450       ?run@rdClientThread@@UAEXPAX@Z 00406450 f   rdClient.obj
 0001:00006890       ??0rdClient@@QAE@XZ        00407890 f   rdClient.obj
 0001:00006a00       ??1rdClient@@QAE@XZ        00407a00 f   rdClient.obj
 0001:00006b60       ??_GrdBuffer@@QAEPAXI@Z    00407b60 f i rdClient.obj
 0001:00006ba0       ?Init@rdClient@@UAEHPAVrdServer@@PAVVSocket@@HHF@Z 00407ba0 f   rdClient.obj
 0001:00006cb0       ??0rdClientThread@@QAE@XZ  00407cb0 f i rdClient.obj
 0001:00006ce0       ?Kill@rdClient@@UAEXXZ     00407ce0 f   rdClient.obj
 0001:00006d10       ?SetBuffer@rdClient@@UAEXPAVrdBuffer@@@Z 00407d10 f   rdClient.obj
 0001:00006d30       ?PollWindow@rdClient@@IAEXPAUHWND__@@@Z 00407d30 f   rdClient.obj
 0001:00006e00       ?TriggerUpdate@rdClient@@UAEXXZ 00407e00 f   rdClient.obj
 0001:00007050       ?IsEmpty@rdRegion@@QAEHXZ  00408050 f i rdClient.obj
 0001:00007070       ??0ToText@rdPasswd@@QAE@QBD@Z 00408070 f i rdClient.obj
 0001:000070b0       ??1ToText@rdPasswd@@QAE@XZ 004080b0 f i rdClient.obj
 0001:00007100       ??BToText@rdPasswd@@QBEPBDXZ 00408100 f i rdClient.obj
 0001:00007120       ?UpdateMouse@rdClient@@UAEXXZ 00408120 f   rdClient.obj
 0001:000071e0       ?UpdateRect@rdClient@@UAEXAAUtagRECT@@@Z 004081e0 f   rdClient.obj
 0001:00007280       ?UpdateRegion@rdClient@@UAEXAAVrdRegion@@@Z 00408280 f   rdClient.obj
 0001:00007330       ?CopyRect@rdClient@@UAEXAAUtagRECT@@AAUtagPOINT@@@Z 00408330 f   rdClient.obj
 0001:00007580       ?UpdateClipText@rdClient@@UAEXPAD@Z 00408580 f   rdClient.obj
 0001:000076d0       ?UpdatePalette@rdClient@@UAEXXZ 004086d0 f   rdClient.obj
 0001:00007710       ?GetClientName@rdClient@@UAEPBDXZ 00408710 f   rdClient.obj
 0001:00007730       ?SendRFBMsg@rdClient@@IAEHEPAEH@Z 00408730 f   rdClient.obj
 0001:00007790       ?SendUpdate@rdClient@@IAEHXZ 00408790 f   rdClient.obj
 0001:00007f90       ?CheckRects@rdClient@@IAEXAAVrdRegion@@AAV?$list@UtagRECT@@V?$allocator@UtagRECT@@@std@@@std@@@Z 00408f90 f i rdClient.obj
 0001:00008010       ?ClearRects@rdClient@@IAEXAAVrdRegion@@AAV?$list@UtagRECT@@V?$allocator@UtagRECT@@@std@@@std@@@Z 00409010 f i rdClient.obj
 0001:000080a0       ?GrabRegion@rdClient@@IAEXAAVrdRegion@@@Z 004090a0 f i rdClient.obj
 0001:00008210       ?SetTeleport@rdClient@@UAEXH@Z 00409210 f i rdClient.obj
 0001:00008230       ?EnableKeyboard@rdClient@@UAEXH@Z 00409230 f i rdClient.obj
 0001:00008250       ?EnablePointer@rdClient@@UAEXH@Z 00409250 f i rdClient.obj
 0001:00008270       ?SetCapability@rdClient@@UAEXH@Z 00409270 f i rdClient.obj
 0001:00008290       ?IsTeleport@rdClient@@UAEHXZ 00409290 f i rdClient.obj
 0001:000082b0       ?IsKeyboardEnabled@rdClient@@UAEHXZ 004092b0 f i rdClient.obj
 0001:000082d0       ?IsPointerEnabled@rdClient@@UAEHXZ 004092d0 f i rdClient.obj
 0001:000082f0       ?GetCapability@rdClient@@UAEHXZ 004092f0 f i rdClient.obj
 0001:00008310       ?GetClientId@rdClient@@UAEFXZ 00409310 f i rdClient.obj
 0001:00008330       ?SendRectangles@rdClient@@IAEHAAV?$list@UtagRECT@@V?$allocator@UtagRECT@@@std@@@std@@@Z 00409330 f   rdClient.obj
 0001:000083a0       ?SendRectangle@rdClient@@IAEHAAUtagRECT@@@Z 004093a0 f   rdClient.obj
 0001:000083f0       ?SendCopyRect@rdClient@@IAEHAAUtagRECT@@AAUtagPOINT@@@Z 004093f0 f   rdClient.obj
 0001:00008530       ?SendLastRect@rdClient@@IAEHXZ 00409530 f   rdClient.obj
 0001:00008580       ?SendPalette@rdClient@@IAEHXZ 00409580 f   rdClient.obj
 0001:00008750       ?SendCursorShapeUpdate@rdClient@@IAEHXZ 00409750 f   rdClient.obj
 0001:000087b0       ?SendCursorPosUpdate@rdClient@@IAEHXZ 004097b0 f   rdClient.obj
 0001:00008840       ??0?$list@UtagRECT@@V?$allocator@UtagRECT@@@std@@@std@@QAE@ABV?$allocator@UtagRECT@@@1@@Z 00409840 f i rdClient.obj
 0001:00008880       ??1?$list@UtagRECT@@V?$allocator@UtagRECT@@@std@@@std@@QAE@XZ 00409880 f i rdClient.obj
 0001:000088e0       ?begin@?$list@UtagRECT@@V?$allocator@UtagRECT@@@std@@@std@@QAE?AViterator@12@XZ 004098e0 f i rdClient.obj
 0001:00008920       ?end@?$list@UtagRECT@@V?$allocator@UtagRECT@@@std@@@std@@QAE?AViterator@12@XZ 00409920 f i rdClient.obj
 0001:00008950       ?empty@?$list@UtagRECT@@V?$allocator@UtagRECT@@@std@@@std@@QBE_NXZ 00409950 f i rdClient.obj
 0001:00008970       ?front@?$list@UtagRECT@@V?$allocator@UtagRECT@@@std@@@std@@QAEAAUtagRECT@@XZ 00409970 f i rdClient.obj
 0001:000089a0       ?pop_front@?$list@UtagRECT@@V?$allocator@UtagRECT@@@std@@@std@@QAEXXZ 004099a0 f i rdClient.obj
 0001:000089d0       ?clear@?$list@UtagRECT@@V?$allocator@UtagRECT@@@std@@@std@@QAEXXZ 004099d0 f i rdClient.obj
 0001:00008a10       ?sort@?$list@UtagRECT@@V?$allocator@UtagRECT@@@std@@@std@@QAEXXZ 00409a10 f i rdClient.obj
 0001:00008c20       ??0iterator@?$list@UtagRECT@@V?$allocator@UtagRECT@@@std@@@std@@QAE@XZ 00409c20 f i rdClient.obj
 0001:00008c40       ??Diterator@?$list@UtagRECT@@V?$allocator@UtagRECT@@@std@@@std@@QBEAAUtagRECT@@XZ 00409c40 f i rdClient.obj
 0001:00008c70       ??Eiterator@?$list@UtagRECT@@V?$allocator@UtagRECT@@@std@@@std@@QAE?AV012@H@Z 00409c70 f i rdClient.obj
 0001:00008ca0       ??9iterator@?$list@UtagRECT@@V?$allocator@UtagRECT@@@std@@@std@@QBE_NABV012@@Z 00409ca0 f i rdClient.obj
 0001:00008cd0       ??_F?$list@UtagRECT@@V?$allocator@UtagRECT@@@std@@@std@@QAEXXZ 00409cd0 f i rdClient.obj
 0001:00008cf0       ?size@?$list@UtagRECT@@V?$allocator@UtagRECT@@@std@@@std@@QBEIXZ 00409cf0 f i rdClient.obj
 0001:00008d10       ?erase@?$list@UtagRECT@@V?$allocator@UtagRECT@@@std@@@std@@QAE?AViterator@12@V312@@Z 00409d10 f i rdClient.obj
 0001:00008dd0       ?erase@?$list@UtagRECT@@V?$allocator@UtagRECT@@@std@@@std@@QAE?AViterator@12@V312@0@Z 00409dd0 f i rdClient.obj
 0001:00008e30       ?swap@?$list@UtagRECT@@V?$allocator@UtagRECT@@@std@@@std@@QAEXAAV12@@Z 00409e30 f i rdClient.obj
 0001:00008ee0       ?splice@?$list@UtagRECT@@V?$allocator@UtagRECT@@@std@@@std@@QAEXViterator@12@AAV12@0@Z 00409ee0 f i rdClient.obj
 0001:00008f60       ?merge@?$list@UtagRECT@@V?$allocator@UtagRECT@@@std@@@std@@QAEXAAV12@@Z 00409f60 f i rdClient.obj
 0001:000090e0       ?_Buynode@?$list@UtagRECT@@V?$allocator@UtagRECT@@@std@@@std@@IAEPAU_Node@12@PAU312@0@Z 0040a0e0 f i rdClient.obj
 0001:00009150       ?_Freenode@?$list@UtagRECT@@V?$allocator@UtagRECT@@@std@@@std@@IAEXPAU_Node@12@@Z 0040a150 f i rdClient.obj
 0001:00009180       ?_Next@_Acc@?$list@UtagRECT@@V?$allocator@UtagRECT@@@std@@@std@@SAAAPAU_Node@23@PAU423@@Z 0040a180 f i rdClient.obj
 0001:000091a0       ?_Value@_Acc@?$list@UtagRECT@@V?$allocator@UtagRECT@@@std@@@std@@SAAAUtagRECT@@PAU_Node@23@@Z 0040a1a0 f i rdClient.obj
 0001:000091c0       ??0const_iterator@?$list@UtagRECT@@V?$allocator@UtagRECT@@@std@@@std@@QAE@XZ 0040a1c0 f i rdClient.obj
 0001:000091e0       ??0iterator@?$list@UtagRECT@@V?$allocator@UtagRECT@@@std@@@std@@QAE@PAU_Node@12@@Z 0040a1e0 f i rdClient.obj
 0001:00009210       ??Eiterator@?$list@UtagRECT@@V?$allocator@UtagRECT@@@std@@@std@@QAEAAV012@XZ 0040a210 f i rdClient.obj
 0001:00009240       ??8iterator@?$list@UtagRECT@@V?$allocator@UtagRECT@@@std@@@std@@QBE_NABV012@@Z 0040a240 f i rdClient.obj
 0001:00009270       ?splice@?$list@UtagRECT@@V?$allocator@UtagRECT@@@std@@@std@@QAEXViterator@12@AAV12@@Z 0040a270 f i rdClient.obj
 0001:000092e0       ?splice@?$list@UtagRECT@@V?$allocator@UtagRECT@@@std@@@std@@QAEXViterator@12@AAV12@00@Z 0040a2e0 f i rdClient.obj
 0001:00009370       ?_Splice@?$list@UtagRECT@@V?$allocator@UtagRECT@@@std@@@std@@IAEXViterator@12@AAV12@00@Z 0040a370 f i rdClient.obj
 0001:000094d0       ?_Prev@_Acc@?$list@UtagRECT@@V?$allocator@UtagRECT@@@std@@@std@@SAAAPAU_Node@23@PAU423@@Z 0040a4d0 f i rdClient.obj
 0001:000094f0       ?_Charalloc@?$allocator@UtagRECT@@@std@@QAEPADI@Z 0040a4f0 f i rdClient.obj
 0001:00009520       ?deallocate@?$allocator@UtagRECT@@@std@@QAEXPAXI@Z 0040a520 f i rdClient.obj
 0001:00009550       ?destroy@?$allocator@UtagRECT@@@std@@QAEXPAUtagRECT@@@Z 0040a550 f i rdClient.obj
 0001:00009580       ??0const_iterator@?$list@UtagRECT@@V?$allocator@UtagRECT@@@std@@@std@@QAE@PAU_Node@12@@Z 0040a580 f i rdClient.obj
 0001:000095a0       ?_Mynode@const_iterator@?$list@UtagRECT@@V?$allocator@UtagRECT@@@std@@@std@@QBEPAU_Node@23@XZ 0040a5a0 f i rdClient.obj
 0001:000095c0       ?insert@?$list@UtagRECT@@V?$allocator@UtagRECT@@@std@@@std@@QAEXViterator@12@Vconst_iterator@12@1@Z 0040a5c0 f i rdClient.obj
 0001:00009610       ??0const_iterator@?$list@UtagRECT@@V?$allocator@UtagRECT@@@std@@@std@@QAE@ABViterator@12@@Z 0040a610 f i rdClient.obj
 0001:00009640       ?insert@?$list@UtagRECT@@V?$allocator@UtagRECT@@@std@@@std@@QAE?AViterator@12@V312@ABUtagRECT@@@Z 0040a640 f i rdClient.obj
 0001:00009700       ??Dconst_iterator@?$list@UtagRECT@@V?$allocator@UtagRECT@@@std@@@std@@QBEABUtagRECT@@XZ 0040a700 f i rdClient.obj
 0001:00009730       ??Econst_iterator@?$list@UtagRECT@@V?$allocator@UtagRECT@@@std@@@std@@QAEAAV012@XZ 0040a730 f i rdClient.obj
 0001:00009760       ??9const_iterator@?$list@UtagRECT@@V?$allocator@UtagRECT@@@std@@@std@@QBE_NABV012@@Z 0040a760 f i rdClient.obj
 0001:00009790       ?construct@?$allocator@UtagRECT@@@std@@QAEXPAUtagRECT@@ABU3@@Z 0040a790 f i rdClient.obj
 0001:000097c0       ??8const_iterator@?$list@UtagRECT@@V?$allocator@UtagRECT@@@std@@@std@@QBE_NABV012@@Z 0040a7c0 f i rdClient.obj
 0001:000097f0       ??8std@@YA_NABV?$allocator@UtagRECT@@@0@0@Z 0040a7f0 f i rdClient.obj
 0001:00009810       ?swap@std@@YAXAAPAU_Node@?$list@UtagRECT@@V?$allocator@UtagRECT@@@std@@@1@0@Z 0040a810 f i rdClient.obj
 0001:00009840       ?swap@std@@YAXAAI0@Z       0040a840 f i rdClient.obj
 0001:00009870       ?_Distance@std@@YAXViterator@?$list@UtagRECT@@V?$allocator@UtagRECT@@@std@@@1@0AAH@Z 0040a870 f i rdClient.obj
 0001:000098b0       ?_Allocate@std@@YAPADHPAD@Z 0040a8b0 f i rdClient.obj
 0001:000098e0       ?_Destroy@std@@YAXPAUtagRECT@@@Z 0040a8e0 f i rdClient.obj
 0001:000098f0       ?_Construct@std@@YAXPAUtagRECT@@ABU2@@Z 0040a8f0 f i rdClient.obj
 0001:00009950       ??2@YAPAXIPAX@Z            0040a950 f i rdClient.obj
 0001:00009970       ?_Iter_cat@std@@YA?AUbidirectional_iterator_tag@1@ABU?$iterator@Ubidirectional_iterator_tag@std@@UtagRECT@@H@1@@Z 0040a970 f i rdClient.obj
 0001:000099a0       ?_Distance@std@@YAXViterator@?$list@UtagRECT@@V?$allocator@UtagRECT@@@std@@@1@0AAHUbidirectional_iterator_tag@1@@Z 0040a9a0 f i rdClient.obj
 0001:000099e0       ??0rdConnDialog@@QAE@PAVrdServer@@@Z 0040a9e0 f   rdConnDialog.obj
 0001:00009a10       ??_GrdConnDialog@@UAEPAXI@Z 0040aa10 f i rdConnDialog.obj
 0001:00009a10       ??_ErdConnDialog@@UAEPAXI@Z 0040aa10 f i rdConnDialog.obj
 0001:00009a50       ??1rdConnDialog@@UAE@XZ    0040aa50 f   rdConnDialog.obj
 0001:00009a70       ?DoDialog@rdConnDialog@@QAEXXZ 0040aa70 f   rdConnDialog.obj
 0001:00009ad0       ?rdConnDlgProc@rdConnDialog@@CGHPAUHWND__@@IIJ@Z 0040aad0 f   rdConnDialog.obj
 0001:00009e90       ?Init@rdDesktopThread@@UAEHPAVrdDesktop@@PAVrdServer@@@Z 0040ae90 f   rdDesktop.obj
 0001:00009f80       ?ReturnVal@rdDesktopThread@@UAEXH@Z 0040af80 f   rdDesktop.obj
 0001:0000a000       ?run_undetached@rdDesktopThread@@UAEPAXPAX@Z 0040b000 f   rdDesktop.obj
 0001:0000a490       ??0rdDesktop@@QAE@XZ       0040b490 f   rdDesktop.obj
 0001:0000a550       ??1rdDesktop@@QAE@XZ       0040b550 f   rdDesktop.obj
 0001:0000a5f0       ?Startup@rdDesktop@@IAEHXZ 0040b5f0 f   rdDesktop.obj
 0001:0000a7c0       ?Shutdown@rdDesktop@@IAEHXZ 0040b7c0 f   rdDesktop.obj
 0001:0000a930       ?InitDesktop@rdDesktop@@IAEHXZ 0040b930 f   rdDesktop.obj
 0001:0000a960       ?KillScreenSaverFunc@@YGHPAUHWND__@@J@Z 0040b960 f   rdDesktop.obj
 0001:0000a9c0       ?KillScreenSaver@rdDesktop@@IAEXXZ 0040b9c0 f   rdDesktop.obj
 0001:0000aad0       ?ChangeResNow@rdDesktop@@IAEXXZ 0040bad0 f   rdDesktop.obj
 0001:0000ad70       ?DisableIfRegSystemParameter@rdDesktop@@IAEXPADHHPAXH@Z 0040bd70 f   rdDesktop.obj
 0001:0000ae30       ?SetupDisplayForConnection@rdDesktop@@IAEXXZ 0040be30 f   rdDesktop.obj
 0001:0000aec0       ?OptimizeDisplayForConnection@rdDesktop@@IAEHXZ 0040bec0 f   rdDesktop.obj
 0001:0000b010       ?ResetDisplayToNormal@rdDesktop@@IAEXXZ 0040c010 f   rdDesktop.obj
 0001:0000b210       ?InitBitmap@rdDesktop@@IAEHXZ 0040c210 f   rdDesktop.obj
 0001:0000b560       ?ThunkBitmapInfo@rdDesktop@@IAEHXZ 0040c560 f   rdDesktop.obj
 0001:0000b6e0       ?SetPixFormat@rdDesktop@@IAEHXZ 0040c6e0 f   rdDesktop.obj
 0001:0000b790       ?SetPixShifts@rdDesktop@@IAEHXZ 0040c790 f   rdDesktop.obj
 0001:0000b930       ?SetPalette@rdDesktop@@IAEHXZ 0040c930 f   rdDesktop.obj
 0001:0000baf0       ?InitWindow@rdDesktop@@IAEHXZ 0040caf0 f   rdDesktop.obj
 0001:0000bc10       ?EnableOptimisedBlits@rdDesktop@@IAEXXZ 0040cc10 f   rdDesktop.obj
 0001:0000bcf0       ?Init@rdDesktop@@QAEHPAVrdServer@@@Z 0040ccf0 f   rdDesktop.obj
 0001:0000bde0       ??0rdDesktopThread@@QAE@XZ 0040cde0 f i rdDesktop.obj
 0001:0000be50       ??_GrdDesktopThread@@MAEPAXI@Z 0040ce50 f i rdDesktop.obj
 0001:0000be50       ??_ErdDesktopThread@@MAEPAXI@Z 0040ce50 f i rdDesktop.obj
 0001:0000be90       ??1rdDesktopThread@@MAE@XZ 0040ce90 f i rdDesktop.obj
 0001:0000bf30       ??_Gomni_condition@@QAEPAXI@Z 0040cf30 f i rdDesktop.obj
 0001:0000bf70       ?Window@rdDesktop@@QAEPAUHWND__@@XZ 0040cf70 f i rdDesktop.obj
 0001:0000bf90       ?SetClipboardActive@rdDesktop@@IAEXH@Z 0040cf90 f i rdDesktop.obj
 0001:0000bfb0       ?RequestUpdate@rdDesktop@@QAEXXZ 0040cfb0 f   rdDesktop.obj
 0001:0000bfe0       ?ScreenBuffSize@rdDesktop@@QAEHXZ 0040cfe0 f   rdDesktop.obj
 0001:0000c030       ?FillDisplayInfo@rdDesktop@@QAEXPAU_rfbServerInitMsg@@@Z 0040d030 f   rdDesktop.obj
 0001:0000c060       ?CaptureScreen@rdDesktop@@QAEXAAUtagRECT@@PAEI@Z 0040d060 f   rdDesktop.obj
 0001:0000c170       ?CaptureMouse@rdDesktop@@QAEXPAEI@Z 0040d170 f   rdDesktop.obj
 0001:0000c370       ?GetRichCursorData@rdDesktop@@QAEHPAEPAUHICON__@@HH@Z 0040d370 f   rdDesktop.obj
 0001:0000c520       ?MouseRect@rdDesktop@@QAE?AUtagRECT@@XZ 0040d520 f   rdDesktop.obj
 0001:0000c560       ?SetCursor@rdDesktop@@QAEXPAUHICON__@@@Z 0040d560 f   rdDesktop.obj
 0001:0000c5a0       ?SetClipText@rdDesktop@@QAEXPAD@Z 0040d5a0 f   rdDesktop.obj
 0001:0000c630       ?MaskToMaxAndShift@rdDesktop@@KAXKAAGAAE@Z 0040d630 f i rdDesktop.obj
 0001:0000c680       ?CopyToBuffer@rdDesktop@@IAEXAAUtagRECT@@PAEI@Z 0040d680 f   rdDesktop.obj
 0001:0000c8f0       ?EnumWindowsFn@@YGHPAUHWND__@@J@Z 0040d8f0 f   rdDesktop.obj
 0001:0000ca60       ?CalcCopyRects@rdDesktop@@IAEXXZ 0040da60 f   rdDesktop.obj
 0001:0000ca90       ?DesktopWndProc@@YGJPAUHWND__@@IIJ@Z 0040da90 f   rdDesktop.obj
 0001:0000cd10       ??0rdEncodeCoRRE@@QAE@XZ   0040dd10 f   rdEncodeCoRRE.obj
 0001:0000cdb0       ??_GrdEncodeCoRRE@@UAEPAXI@Z 0040ddb0 f i rdEncodeCoRRE.obj
 0001:0000cdb0       ??_ErdEncodeCoRRE@@UAEPAXI@Z 0040ddb0 f i rdEncodeCoRRE.obj
 0001:0000cdf0       ??1rdEncodeCoRRE@@UAE@XZ   0040ddf0 f   rdEncodeCoRRE.obj
 0001:0000ce40       ?Init@rdEncodeCoRRE@@UAEXXZ 0040de40 f   rdEncodeCoRRE.obj
 0001:0000ce60       ?RequiredBuffSize@rdEncodeCoRRE@@UAEIII@Z 0040de60 f   rdEncodeCoRRE.obj
 0001:0000cec0       ?NumCodedRects@rdEncodeCoRRE@@UAEIAAUtagRECT@@@Z 0040dec0 f   rdEncodeCoRRE.obj
 0001:0000d130       ?EncodeRect@rdEncodeCoRRE@@UAEIPAE0ABUtagRECT@@@Z 0040e130 f   rdEncodeCoRRE.obj
 0001:0000d1e0       ?InternalEncodeRect@rdEncodeCoRRE@@MAEIPAE0ABUtagRECT@@@Z 0040e1e0 f   rdEncodeCoRRE.obj
 0001:0000d380       ?SetCoRREMax@rdEncodeCoRRE@@UAEXEE@Z 0040e380 f   rdEncodeCoRRE.obj
 0001:0000d3c0       ?EncodeSmallRect@rdEncodeCoRRE@@MAEIPAE0ABUtagRECT@@@Z 0040e3c0 f   rdEncodeCoRRE.obj
 0001:0000e1c0       ?GetEncodingName@rdEncodeCoRRE@@UAEPBDXZ 0040f1c0 f i rdEncodeCoRRE.obj
 0001:0000e1e0       ??0rdEncodeHexT@@QAE@XZ    0040f1e0 f   rdEncodeHexT.obj
 0001:0000e210       ??_GrdEncodeHexT@@UAEPAXI@Z 0040f210 f i rdEncodeHexT.obj
 0001:0000e210       ??_ErdEncodeHexT@@UAEPAXI@Z 0040f210 f i rdEncodeHexT.obj
 0001:0000e250       ??1rdEncodeHexT@@UAE@XZ    0040f250 f   rdEncodeHexT.obj
 0001:0000e280       ?Init@rdEncodeHexT@@UAEXXZ 0040f280 f   rdEncodeHexT.obj
 0001:0000e2a0       ?RequiredBuffSize@rdEncodeHexT@@UAEIII@Z 0040f2a0 f   rdEncodeHexT.obj
 0001:0000e2e0       ?NumCodedRects@rdEncodeHexT@@UAEIAAUtagRECT@@@Z 0040f2e0 f   rdEncodeHexT.obj
 0001:0000e300       ?EncodeRect@rdEncodeHexT@@UAEIPAE0ABUtagRECT@@@Z 0040f300 f   rdEncodeHexT.obj
 0001:0000e5a0       ?EncodeHextiles8@rdEncodeHexT@@MAEIPAE0HHHH@Z 0040f5a0 f   rdEncodeHexT.obj
 0001:0000ec80       ?EncodeHextiles16@rdEncodeHexT@@MAEIPAE0HHHH@Z 0040fc80 f   rdEncodeHexT.obj
 0001:0000f390       ?EncodeHextiles32@rdEncodeHexT@@MAEIPAE0HHHH@Z 00410390 f   rdEncodeHexT.obj
 0001:0000fab0       ?GetEncodingName@rdEncodeHexT@@UAEPBDXZ 00410ab0 f i rdEncodeHexT.obj
 0001:0000fad0       ??0rdEncoder@@QAE@XZ       00410ad0 f   rdEncoder.obj
 0001:0000fb80       ??_GrdEncoder@@UAEPAXI@Z   00410b80 f i rdEncoder.obj
 0001:0000fb80       ??_ErdEncoder@@UAEPAXI@Z   00410b80 f i rdEncoder.obj
 0001:0000fbc0       ??1rdEncoder@@UAE@XZ       00410bc0 f   rdEncoder.obj
 0001:0000fc30       ?Init@rdEncoder@@UAEXXZ    00410c30 f   rdEncoder.obj
 0001:0000fc70       ?LogStats@rdEncoder@@UAEXXZ 00410c70 f   rdEncoder.obj
 0001:0000fd10       ?RequiredBuffSize@rdEncoder@@UAEIII@Z 00410d10 f   rdEncoder.obj
 0001:0000fd40       ?NumCodedRects@rdEncoder@@UAEIAAUtagRECT@@@Z 00410d40 f   rdEncoder.obj
 0001:0000fd60       ?Translate@rdEncoder@@UAEXPAE0ABUtagRECT@@@Z 00410d60 f i rdEncoder.obj
 0001:0000fdf0       ?EncodeRect@rdEncoder@@UAEIPAE0ABUtagRECT@@@Z 00410df0 f i rdEncoder.obj
 0001:0000ffe0       ?EncodeRect@rdEncoder@@UAEIPAEPAVVSocket@@0ABUtagRECT@@@Z 00410fe0 f i rdEncoder.obj
 0001:00010010       ?GetRemotePalette@rdEncoder@@QAEHPAUtagRGBQUAD@@I@Z 00411010 f   rdEncoder.obj
 0001:00010270       ?SetTranslateFunction@rdEncoder@@IAEHXZ 00411270 f   rdEncoder.obj
 0001:00010780       ?SetLocalFormat@rdEncoder@@QAEHAAU_rfbPixelFormat@@HH@Z 00411780 f   rdEncoder.obj
 0001:000107f0       ?SetRemoteFormat@rdEncoder@@QAEHAAU_rfbPixelFormat@@@Z 004117f0 f   rdEncoder.obj
 0001:00010830       ?SetCompressLevel@rdEncoder@@QAEXH@Z 00411830 f   rdEncoder.obj
 0001:00010870       ?SetQualityLevel@rdEncoder@@QAEXH@Z 00411870 f   rdEncoder.obj
 0001:000108b0       ?SendEmptyCursorShape@rdEncoder@@QAEHPAVVSocket@@@Z 004118b0 f   rdEncoder.obj
 0001:00010910       ?SendCursorShape@rdEncoder@@QAEHPAVVSocket@@PAVrdDesktop@@@Z 00411910 f   rdEncoder.obj
 0001:00010c60       ?SendXCursorShape@rdEncoder@@IAEHPAVVSocket@@PAEHHHH@Z 00411c60 f   rdEncoder.obj
 0001:00010d80       ?SendRichCursorShape@rdEncoder@@IAEHPAVVSocket@@PAE1HHHH@Z 00411d80 f   rdEncoder.obj
 0001:00010f20       ?Translate@rdEncoder@@QAEXPAE0HHH@Z 00411f20 f i rdEncoder.obj
 0001:00010f70       ?FixCursorMask@rdEncoder@@IAEXPAE0HHH@Z 00411f70 f   rdEncoder.obj
 0001:00011270       ?GetEncodingName@rdEncoder@@UAEPBDXZ 00412270 f i rdEncoder.obj
 0001:00011290       ??0rdEncodeRRE@@QAE@XZ     00412290 f   rdEncodeRRE.obj
 0001:000112d0       ??_GrdEncodeRRE@@UAEPAXI@Z 004122d0 f i rdEncodeRRE.obj
 0001:000112d0       ??_ErdEncodeRRE@@UAEPAXI@Z 004122d0 f i rdEncodeRRE.obj
 0001:00011310       ??1rdEncodeRRE@@UAE@XZ     00412310 f   rdEncodeRRE.obj
 0001:00011360       ?Init@rdEncodeRRE@@UAEXXZ  00412360 f   rdEncodeRRE.obj
 0001:00011380       ?RequiredBuffSize@rdEncodeRRE@@UAEIII@Z 00412380 f   rdEncodeRRE.obj
 0001:000113b0       ?NumCodedRects@rdEncodeRRE@@UAEIAAUtagRECT@@@Z 004123b0 f   rdEncodeRRE.obj
 0001:00011410       ?EncodeRect@rdEncodeRRE@@UAEIPAE0ABUtagRECT@@@Z 00412410 f i rdEncodeRRE.obj
 0001:000122f0       ?GetEncodingName@rdEncodeRRE@@UAEPBDXZ 004132f0 f i rdEncodeRRE.obj
 0001:00012310       ??0rdEncodeTight@@QAE@XZ   00413310 f   rdEncodeTight.obj
 0001:000123d0       ??_ErdEncodeTight@@UAEPAXI@Z 004133d0 f i rdEncodeTight.obj
 0001:000123d0       ??_GrdEncodeTight@@UAEPAXI@Z 004133d0 f i rdEncodeTight.obj
 0001:00012410       ??1rdEncodeTight@@UAE@XZ   00413410 f   rdEncodeTight.obj
 0001:000124d0       ?Init@rdEncodeTight@@UAEXXZ 004134d0 f   rdEncodeTight.obj
 0001:000124f0       ?RequiredBuffSize@rdEncodeTight@@UAEIII@Z 004134f0 f   rdEncodeTight.obj
 0001:00012540       ?NumCodedRects@rdEncodeTight@@UAEIAAUtagRECT@@@Z 00413540 f   rdEncodeTight.obj
 0001:00012620       ?EncodeRect@rdEncodeTight@@UAEIPAEPAVVSocket@@0ABUtagRECT@@@Z 00413620 f   rdEncodeTight.obj
 0001:00012c20       ?FindBestSolidArea@rdEncodeTight@@IAEXPAEHHHHKPAH1@Z 00413c20 f   rdEncodeTight.obj
 0001:00012de0       ?ExtendSolidArea@rdEncodeTight@@IAEXPAEHHHHKPAH111@Z 00413de0 f   rdEncodeTight.obj
 0001:00012fc0       ?CheckSolidTile@rdEncodeTight@@IAE_NPAEHHHHPAK_N@Z 00413fc0 f   rdEncodeTight.obj
 0001:00013060       ?CheckSolidTile8@rdEncodeTight@@IAE_NPAEHHHHPAK_N@Z 00414060 f   rdEncodeTight.obj
 0001:00013120       ?CheckSolidTile16@rdEncodeTight@@IAE_NPAEHHHHPAK_N@Z 00414120 f   rdEncodeTight.obj
 0001:000131f0       ?CheckSolidTile32@rdEncodeTight@@IAE_NPAEHHHHPAK_N@Z 004141f0 f   rdEncodeTight.obj
 0001:000132a0       ?EncodeRectSimple@rdEncodeTight@@IAEIPAEPAVVSocket@@0ABUtagRECT@@@Z 004142a0 f   rdEncodeTight.obj
 0001:00013460       ?EncodeSubrect@rdEncodeTight@@IAEIPAEPAVVSocket@@0HHHH@Z 00414460 f   rdEncodeTight.obj
 0001:00013710       ?SendTightHeader@rdEncodeTight@@IAEXHHHH@Z 00414710 f   rdEncodeTight.obj
 0001:00013800       ?SendSolidRect@rdEncodeTight@@IAEHPAE@Z 00414800 f   rdEncodeTight.obj
 0001:000138a0       ?SendMonoRect@rdEncodeTight@@IAEHPAEHH@Z 004148a0 f   rdEncodeTight.obj
 0001:00013b20       ?SendIndexedRect@rdEncodeTight@@IAEHPAEHH@Z 00414b20 f   rdEncodeTight.obj
 0001:00013d90       ?SendFullColorRect@rdEncodeTight@@IAEHPAEHH@Z 00414d90 f   rdEncodeTight.obj
 0001:00013e50       ?SendGradientRect@rdEncodeTight@@IAEHPAEHH@Z 00414e50 f   rdEncodeTight.obj
 0001:00013fc0       ?CompressData@rdEncodeTight@@IAEHPAEHHHH@Z 00414fc0 f   rdEncodeTight.obj
 0001:000141d0       ?SendCompressedData@rdEncodeTight@@IAEHH@Z 004151d0 f   rdEncodeTight.obj
 0001:00014300       ?FillPalette8@rdEncodeTight@@IAEXH@Z 00415300 f   rdEncodeTight.obj
 0001:00014460       ?FillPalette16@rdEncodeTight@@IAEXH@Z 00415460 f   rdEncodeTight.obj
 0001:000146a0       ?FillPalette32@rdEncodeTight@@IAEXH@Z 004156a0 f   rdEncodeTight.obj
 0001:00014880       ?PaletteReset@rdEncodeTight@@IAEXXZ 00415880 f   rdEncodeTight.obj
 0001:000148c0       ?PaletteInsert@rdEncodeTight@@IAEHKHH@Z 004158c0 f   rdEncodeTight.obj
 0001:00014b00       ?Pack24@rdEncodeTight@@IAEXPAEH@Z 00415b00 f   rdEncodeTight.obj
 0001:00014c00       ?EncodeIndexedRect16@rdEncodeTight@@IAEXPAEH@Z 00415c00 f   rdEncodeTight.obj
 0001:00014d10       ?EncodeIndexedRect32@rdEncodeTight@@IAEXPAEH@Z 00415d10 f   rdEncodeTight.obj
 0001:00014e00       ?EncodeMonoRect8@rdEncodeTight@@IAEXPAEHH@Z 00415e00 f   rdEncodeTight.obj
 0001:00014fb0       ?EncodeMonoRect16@rdEncodeTight@@IAEXPAEHH@Z 00415fb0 f   rdEncodeTight.obj
 0001:00015170       ?EncodeMonoRect32@rdEncodeTight@@IAEXPAEHH@Z 00416170 f   rdEncodeTight.obj
 0001:00015310       ?GetEncodingName@rdEncodeTight@@UAEPBDXZ 00416310 f i rdEncodeTight.obj
 0001:00015330       ?FilterGradient24@rdEncodeTight@@IAEXPAEHH@Z 00416330 f   rdEncodeTight.obj
 0001:00015540       ?FilterGradient16@rdEncodeTight@@IAEXPAGHH@Z 00416540 f   rdEncodeTight.obj
 0001:000157d0       ?FilterGradient32@rdEncodeTight@@IAEXPAKHH@Z 004167d0 f   rdEncodeTight.obj
 0001:00015a80       ?DetectSmoothImage@rdEncodeTight@@IAEHHH@Z 00416a80 f   rdEncodeTight.obj
 0001:00015bd0       ?DetectSmoothImage24@rdEncodeTight@@IAEKHH@Z 00416bd0 f   rdEncodeTight.obj
 0001:00015f70       ?DetectSmoothImage16@rdEncodeTight@@IAEKHH@Z 00416f70 f   rdEncodeTight.obj
 0001:00016360       ?DetectSmoothImage32@rdEncodeTight@@IAEKHH@Z 00417360 f   rdEncodeTight.obj
 0001:00016760       ?SendJpegRect@rdEncodeTight@@IAEHPAEHHH@Z 00417760 f   rdEncodeTight.obj
 0001:00016990       ?PrepareRowForJpeg@rdEncodeTight@@IAEXPAEHH@Z 00417990 f   rdEncodeTight.obj
 0001:00016a30       ?PrepareRowForJpeg24@rdEncodeTight@@IAEXPAEPAKH@Z 00417a30 f   rdEncodeTight.obj
 0001:00016b30       ?PrepareRowForJpeg16@rdEncodeTight@@IAEXPAEPAGH@Z 00417b30 f   rdEncodeTight.obj
 0001:00016c90       ?PrepareRowForJpeg32@rdEncodeTight@@IAEXPAEPAKH@Z 00417c90 f   rdEncodeTight.obj
 0001:00016ec0       ??0rdEncodeZlib@@QAE@XZ    00417ec0 f   rdEncodeZlib.obj
 0001:00016f10       ??_ErdEncodeZlib@@UAEPAXI@Z 00417f10 f i rdEncodeZlib.obj
 0001:00016f10       ??_GrdEncodeZlib@@UAEPAXI@Z 00417f10 f i rdEncodeZlib.obj
 0001:00016f50       ??1rdEncodeZlib@@UAE@XZ    00417f50 f   rdEncodeZlib.obj
 0001:00016fd0       ?Init@rdEncodeZlib@@UAEXXZ 00417fd0 f   rdEncodeZlib.obj
 0001:00016ff0       ?RequiredBuffSize@rdEncodeZlib@@UAEIII@Z 00417ff0 f   rdEncodeZlib.obj
 0001:00017030       ?NumCodedRects@rdEncodeZlib@@UAEIAAUtagRECT@@@Z 00418030 f   rdEncodeZlib.obj
 0001:000170a0       ?EncodeRect@rdEncodeZlib@@UAEIPAEPAVVSocket@@0ABUtagRECT@@@Z 004180a0 f i rdEncodeZlib.obj
 0001:000171e0       ?EncodeOneRect@rdEncodeZlib@@UAEIPAE0ABUtagRECT@@@Z 004181e0 f i rdEncodeZlib.obj
 0001:00017640       ?GetEncodingName@rdEncodeZlib@@UAEPBDXZ 00418640 f i rdEncodeZlib.obj
 0001:00017660       ??0rdEncodeZlibHex@@QAE@XZ 00418660 f   rdEncodeZlibHex.obj
 0001:000176c0       ??_GrdEncodeZlibHex@@UAEPAXI@Z 004186c0 f i rdEncodeZlibHex.obj
 0001:000176c0       ??_ErdEncodeZlibHex@@UAEPAXI@Z 004186c0 f i rdEncodeZlibHex.obj
 0001:00017700       ??1rdEncodeZlibHex@@UAE@XZ 00418700 f   rdEncodeZlibHex.obj
 0001:000177a0       ?Init@rdEncodeZlibHex@@UAEXXZ 004187a0 f   rdEncodeZlibHex.obj
 0001:000177c0       ?RequiredBuffSize@rdEncodeZlibHex@@UAEIII@Z 004187c0 f   rdEncodeZlibHex.obj
 0001:00017840       ?NumCodedRects@rdEncodeZlibHex@@UAEIAAUtagRECT@@@Z 00418840 f   rdEncodeZlibHex.obj
 0001:00017860       ?EncodeRect@rdEncodeZlibHex@@UAEIPAEPAVVSocket@@0ABUtagRECT@@@Z 00418860 f   rdEncodeZlibHex.obj
 0001:00017aa0       ?zlibCompress@rdEncodeZlibHex@@MAEIPAE0IPAUz_stream_s@@@Z 00418aa0 f   rdEncodeZlibHex.obj
 0001:00017be0       ?EncodeHextiles8@rdEncodeZlibHex@@MAEIPAE0PAVVSocket@@HHHH@Z 00418be0 f   rdEncodeZlibHex.obj
 0001:00018480       ?EncodeHextiles16@rdEncodeZlibHex@@MAEIPAE0PAVVSocket@@HHHH@Z 00419480 f   rdEncodeZlibHex.obj
 0001:00018d50       ?EncodeHextiles32@rdEncodeZlibHex@@MAEIPAE0PAVVSocket@@HHHH@Z 00419d50 f   rdEncodeZlibHex.obj
 0001:00019630       ?GetEncodingName@rdEncodeZlibHex@@UAEPBDXZ 0041a630 f i rdEncodeZlibHex.obj
 0001:00019650       ?Init@rdHTTPConnectThread@@UAEHPAVVSocket@@PAVrdServer@@H@Z 0041a650 f   rdHTTPConnect.obj
 0001:00019690       ?run@rdHTTPConnectThread@@UAEXPAX@Z 0041a690 f   rdHTTPConnect.obj
 0001:00019730       ?DoHTTP@rdHTTPConnectThread@@UAEXPAVVSocket@@@Z 0041a730 f   rdHTTPConnect.obj
 0001:00019c70       ?ParseParams@rdHTTPConnectThread@@UAEHPBDPADH@Z 0041ac70 f   rdHTTPConnect.obj
 0001:00019e60       ?ValidateString@rdHTTPConnectThread@@QAEHPAD@Z 0041ae60 f   rdHTTPConnect.obj
 0001:00019ee0       ?ReadLine@rdHTTPConnectThread@@UAEPADPAVVSocket@@DH@Z 0041aee0 f   rdHTTPConnect.obj
 0001:00019f90       ?Init@rdHTTPListenThread@@UAEHPAVVSocket@@PAVrdServer@@H@Z 0041af90 f   rdHTTPConnect.obj
 0001:0001a020       ?run_undetached@rdHTTPListenThread@@UAEPAXPAX@Z 0041b020 f   rdHTTPConnect.obj
 0001:0001a120       ??0rdHTTPConnectThread@@QAE@XZ 0041b120 f i rdHTTPConnect.obj
 0001:0001a150       ??_GrdHTTPConnectThread@@UAEPAXI@Z 0041b150 f i rdHTTPConnect.obj
 0001:0001a150       ??_ErdHTTPConnectThread@@UAEPAXI@Z 0041b150 f i rdHTTPConnect.obj
 0001:0001a190       ??1rdHTTPConnectThread@@UAE@XZ 0041b190 f i rdHTTPConnect.obj
 0001:0001a1b0       ??0rdHTTPConnect@@QAE@XZ   0041b1b0 f   rdHTTPConnect.obj
 0001:0001a1f0       ?Init@rdHTTPConnect@@UAEHPAVrdServer@@IH@Z 0041b1f0 f   rdHTTPConnect.obj
 0001:0001a300       ??0rdHTTPListenThread@@QAE@XZ 0041b300 f i rdHTTPConnect.obj
 0001:0001a330       ??_GrdHTTPListenThread@@UAEPAXI@Z 0041b330 f i rdHTTPConnect.obj
 0001:0001a330       ??_ErdHTTPListenThread@@UAEPAXI@Z 0041b330 f i rdHTTPConnect.obj
 0001:0001a370       ??1rdHTTPListenThread@@UAE@XZ 0041b370 f i rdHTTPConnect.obj
 0001:0001a390       ??1rdHTTPConnect@@QAE@XZ   0041b390 f   rdHTTPConnect.obj
 0001:0001a470       ?Init@rdInstHandler@@QAEHXZ 0041b470 f   rdInstHandler.obj
 0001:0001a500       ??0Keymapper@@QAE@XZ       0041b500 f i rdKeymap.obj
 0001:0001a610       ??1Keymapper@@QAE@XZ       0041b610 f i rdKeymap.obj
 0001:0001a670       ??1?$map@KEU?$less@K@std@@V?$allocator@E@2@@std@@QAE@XZ 0041b670 f i rdKeymap.obj
 0001:0001a690       ??1?$map@K_NU?$less@K@std@@V?$allocator@_N@2@@std@@QAE@XZ 0041b690 f i rdKeymap.obj
 0001:0001a6b0       ?keyEvent@rdKeymap@@SAXK_N@Z 0041b6b0 f   rdKeymap.obj
 0001:0001a6e0       ?keyEvent@Keymapper@@QAEXK_N@Z 0041b6e0 f i rdKeymap.obj
 0001:0001aa70       ?doKeyboardEvent@@YAXEK@Z  0041ba70 f i rdKeymap.obj
 0001:0001aab0       ??0KeyStateModifier@@QAE@HH@Z 0041bab0 f i rdKeymap.obj
 0001:0001aaf0       ?press@KeyStateModifier@@QAEXXZ 0041baf0 f i rdKeymap.obj
 0001:0001ab60       ?release@KeyStateModifier@@QAEXXZ 0041bb60 f i rdKeymap.obj
 0001:0001abd0       ??1KeyStateModifier@@QAE@XZ 0041bbd0 f i rdKeymap.obj
 0001:0001ac60       ?SetShiftState@@YAXEH@Z    0041bc60 f   rdKeymap.obj
 0001:0001ad80       ?ClearShiftKeys@rdKeymap@@SAXXZ 0041bd80 f   rdKeymap.obj
 0001:0001ae20       ??0?$map@KEU?$less@K@std@@V?$allocator@E@2@@std@@QAE@ABU?$less@K@1@ABV?$allocator@E@1@@Z 0041be20 f i rdKeymap.obj
 0001:0001ae50       ?end@?$map@KEU?$less@K@std@@V?$allocator@E@2@@std@@QAE?AViterator@?$_Tree@KU?$pair@$$CBKE@std@@U_Kfn@?$map@KEU?$less@K@std@@V?$allocator@E@2@@2@U?$less@K@2@V?$allocator@E@2@@2@XZ 0041be50 f i rdKeymap.obj
 0001:0001ae80       ??A?$map@KEU?$less@K@std@@V?$allocator@E@2@@std@@QAEAAEABK@Z 0041be80 f i rdKeymap.obj
 0001:0001aed0       ?find@?$map@KEU?$less@K@std@@V?$allocator@E@2@@std@@QAE?AViterator@?$_Tree@KU?$pair@$$CBKE@std@@U_Kfn@?$map@KEU?$less@K@std@@V?$allocator@E@2@@2@U?$less@K@2@V?$allocator@E@2@@2@ABK@Z 0041bed0 f i rdKeymap.obj
 0001:0001af00       ??1?$_Tree@KU?$pair@$$CBKE@std@@U_Kfn@?$map@KEU?$less@K@std@@V?$allocator@E@2@@2@U?$less@K@2@V?$allocator@E@2@@std@@QAE@XZ 0041bf00 f i rdKeymap.obj
 0001:0001afd0       ??8iterator@?$_Tree@KU?$pair@$$CBKE@std@@U_Kfn@?$map@KEU?$less@K@std@@V?$allocator@E@2@@2@U?$less@K@2@V?$allocator@E@2@@std@@QBE_NABV012@@Z 0041bfd0 f i rdKeymap.obj
 0001:0001b000       ??0?$map@K_NU?$less@K@std@@V?$allocator@_N@2@@std@@QAE@ABU?$less@K@1@ABV?$allocator@_N@1@@Z 0041c000 f i rdKeymap.obj
 0001:0001b030       ??A?$map@K_NU?$less@K@std@@V?$allocator@_N@2@@std@@QAEAA_NABK@Z 0041c030 f i rdKeymap.obj
 0001:0001b080       ??1?$_Tree@KU?$pair@$$CBK_N@std@@U_Kfn@?$map@K_NU?$less@K@std@@V?$allocator@_N@2@@2@U?$less@K@2@V?$allocator@_N@2@@std@@QAE@XZ 0041c080 f i rdKeymap.obj
 0001:0001b150       ?insert@?$map@KEU?$less@K@std@@V?$allocator@E@2@@std@@QAE?AU?$pair@Viterator@?$_Tree@KU?$pair@$$CBKE@std@@U_Kfn@?$map@KEU?$less@K@std@@V?$allocator@E@2@@2@U?$less@K@2@V?$allocator@E@2@@std@@_N@2@ABU?$pair@$$CBKE@2@@Z 0041c150 f i rdKeymap.obj
 0001:0001b1a0       ??0?$_Tree@KU?$pair@$$CBKE@std@@U_Kfn@?$map@KEU?$less@K@std@@V?$allocator@E@2@@2@U?$less@K@2@V?$allocator@E@2@@std@@QAE@ABU?$less@K@1@_NABV?$allocator@E@1@@Z 0041c1a0 f i rdKeymap.obj
 0001:0001b1e0       ?begin@?$_Tree@KU?$pair@$$CBKE@std@@U_Kfn@?$map@KEU?$less@K@std@@V?$allocator@E@2@@2@U?$less@K@2@V?$allocator@E@2@@std@@QAE?AViterator@12@XZ 0041c1e0 f i rdKeymap.obj
 0001:0001b220       ?end@?$_Tree@KU?$pair@$$CBKE@std@@U_Kfn@?$map@KEU?$less@K@std@@V?$allocator@E@2@@2@U?$less@K@2@V?$allocator@E@2@@std@@QAE?AViterator@12@XZ 0041c220 f i rdKeymap.obj
 0001:0001b250       ?erase@?$_Tree@KU?$pair@$$CBKE@std@@U_Kfn@?$map@KEU?$less@K@std@@V?$allocator@E@2@@2@U?$less@K@2@V?$allocator@E@2@@std@@QAE?AViterator@12@V312@0@Z 0041c250 f i rdKeymap.obj
 0001:0001b3a0       ?find@?$_Tree@KU?$pair@$$CBKE@std@@U_Kfn@?$map@KEU?$less@K@std@@V?$allocator@E@2@@2@U?$less@K@2@V?$allocator@E@2@@std@@QAE?AViterator@12@ABK@Z 0041c3a0 f i rdKeymap.obj
 0001:0001b440       ?_Freenode@?$_Tree@KU?$pair@$$CBKE@std@@U_Kfn@?$map@KEU?$less@K@std@@V?$allocator@E@2@@2@U?$less@K@2@V?$allocator@E@2@@std@@IAEXPAU_Node@12@@Z 0041c440 f i rdKeymap.obj
 0001:0001b470       ??0?$pair@$$CBKE@std@@QAE@ABKABE@Z 0041c470 f i rdKeymap.obj
 0001:0001b4a0       ??Diterator@?$_Tree@KU?$pair@$$CBKE@std@@U_Kfn@?$map@KEU?$less@K@std@@V?$allocator@E@2@@2@U?$less@K@2@V?$allocator@E@2@@std@@QBEAAU?$pair@$$CBKE@2@XZ 0041c4a0 f i rdKeymap.obj
 0001:0001b4d0       ?insert@?$map@K_NU?$less@K@std@@V?$allocator@_N@2@@std@@QAE?AU?$pair@Viterator@?$_Tree@KU?$pair@$$CBK_N@std@@U_Kfn@?$map@K_NU?$less@K@std@@V?$allocator@_N@2@@2@U?$less@K@2@V?$allocator@_N@2@@std@@_N@2@ABU?$pair@$$CBK_N@2@@Z 0041c4d0 f i rdKeymap.obj
 0001:0001b520       ??0?$_Tree@KU?$pair@$$CBK_N@std@@U_Kfn@?$map@K_NU?$less@K@std@@V?$allocator@_N@2@@2@U?$less@K@2@V?$allocator@_N@2@@std@@QAE@ABU?$less@K@1@_NABV?$allocator@_N@1@@Z 0041c520 f i rdKeymap.obj
 0001:0001b560       ?begin@?$_Tree@KU?$pair@$$CBK_N@std@@U_Kfn@?$map@K_NU?$less@K@std@@V?$allocator@_N@2@@2@U?$less@K@2@V?$allocator@_N@2@@std@@QAE?AViterator@12@XZ 0041c560 f i rdKeymap.obj
 0001:0001b5a0       ?end@?$_Tree@KU?$pair@$$CBK_N@std@@U_Kfn@?$map@K_NU?$less@K@std@@V?$allocator@_N@2@@2@U?$less@K@2@V?$allocator@_N@2@@std@@QAE?AViterator@12@XZ 0041c5a0 f i rdKeymap.obj
 0001:0001b5d0       ?erase@?$_Tree@KU?$pair@$$CBK_N@std@@U_Kfn@?$map@K_NU?$less@K@std@@V?$allocator@_N@2@@2@U?$less@K@2@V?$allocator@_N@2@@std@@QAE?AViterator@12@V312@0@Z 0041c5d0 f i rdKeymap.obj
 0001:0001b720       ?_Freenode@?$_Tree@KU?$pair@$$CBK_N@std@@U_Kfn@?$map@K_NU?$less@K@std@@V?$allocator@_N@2@@2@U?$less@K@2@V?$allocator@_N@2@@std@@IAEXPAU_Node@12@@Z 0041c720 f i rdKeymap.obj
 0001:0001b750       ??0?$pair@$$CBK_N@std@@QAE@ABKAB_N@Z 0041c750 f i rdKeymap.obj
 0001:0001b780       ??Diterator@?$_Tree@KU?$pair@$$CBK_N@std@@U_Kfn@?$map@K_NU?$less@K@std@@V?$allocator@_N@2@@2@U?$less@K@2@V?$allocator@_N@2@@std@@QBEAAU?$pair@$$CBK_N@2@XZ 0041c780 f i rdKeymap.obj
 0001:0001b7b0       ??R?$less@K@std@@QBE_NABK0@Z 0041c7b0 f i rdKeymap.obj
 0001:0001b7e0       ?deallocate@?$allocator@E@std@@QAEXPAXI@Z 0041c7e0 f i rdKeymap.obj
 0001:0001b810       ?_Key@?$_Tree@KU?$pair@$$CBKE@std@@U_Kfn@?$map@KEU?$less@K@std@@V?$allocator@E@2@@2@U?$less@K@2@V?$allocator@E@2@@std@@KAABKPAU_Node@12@@Z 0041c810 f i rdKeymap.obj
 0001:0001b840       ?_Value@?$_Tree@KU?$pair@$$CBKE@std@@U_Kfn@?$map@KEU?$less@K@std@@V?$allocator@E@2@@2@U?$less@K@2@V?$allocator@E@2@@std@@KAAAU?$pair@$$CBKE@2@PAU_Node@12@@Z 0041c840 f i rdKeymap.obj
 0001:0001b860       ?size@?$_Tree@KU?$pair@$$CBKE@std@@U_Kfn@?$map@KEU?$less@K@std@@V?$allocator@E@2@@2@U?$less@K@2@V?$allocator@E@2@@std@@QBEIXZ 0041c860 f i rdKeymap.obj
 0001:0001b880       ?insert@?$_Tree@KU?$pair@$$CBKE@std@@U_Kfn@?$map@KEU?$less@K@std@@V?$allocator@E@2@@2@U?$less@K@2@V?$allocator@E@2@@std@@QAE?AU?$pair@Viterator@?$_Tree@KU?$pair@$$CBKE@std@@U_Kfn@?$map@KEU?$less@K@std@@V?$allocator@E@2@@2@U?$less@K@2@V?$allocator@E@2@@std@@_N@2@ABU?$pair@$$CBKE@2@@Z 0041c880 f i rdKeymap.obj
 0001:0001bad0       ?erase@?$_Tree@KU?$pair@$$CBKE@std@@U_Kfn@?$map@KEU?$less@K@std@@V?$allocator@E@2@@2@U?$less@K@2@V?$allocator@E@2@@std@@QAE?AViterator@12@V312@@Z 0041cad0 f i rdKeymap.obj
 0001:0001c320       ?lower_bound@?$_Tree@KU?$pair@$$CBKE@std@@U_Kfn@?$map@KEU?$less@K@std@@V?$allocator@E@2@@2@U?$less@K@2@V?$allocator@E@2@@std@@QAE?AViterator@12@ABK@Z 0041d320 f i rdKeymap.obj
 0001:0001c360       ?_Erase@?$_Tree@KU?$pair@$$CBKE@std@@U_Kfn@?$map@KEU?$less@K@std@@V?$allocator@E@2@@2@U?$less@K@2@V?$allocator@E@2@@std@@IAEXPAU_Node@12@@Z 0041d360 f i rdKeymap.obj
 0001:0001c420       ?_Init@?$_Tree@KU?$pair@$$CBKE@std@@U_Kfn@?$map@KEU?$less@K@std@@V?$allocator@E@2@@2@U?$less@K@2@V?$allocator@E@2@@std@@IAEXXZ 0041d420 f i rdKeymap.obj
 0001:0001c510       ?_Lmost@?$_Tree@KU?$pair@$$CBKE@std@@U_Kfn@?$map@KEU?$less@K@std@@V?$allocator@E@2@@2@U?$less@K@2@V?$allocator@E@2@@std@@IAEAAPAU_Node@12@XZ 0041d510 f i rdKeymap.obj
 0001:0001c540       ?_Rmost@?$_Tree@KU?$pair@$$CBKE@std@@U_Kfn@?$map@KEU?$less@K@std@@V?$allocator@E@2@@2@U?$less@K@2@V?$allocator@E@2@@std@@IAEAAPAU_Node@12@XZ 0041d540 f i rdKeymap.obj
 0001:0001c570       ?_Root@?$_Tree@KU?$pair@$$CBKE@std@@U_Kfn@?$map@KEU?$less@K@std@@V?$allocator@E@2@@2@U?$less@K@2@V?$allocator@E@2@@std@@IAEAAPAU_Node@12@XZ 0041d570 f i rdKeymap.obj
 0001:0001c5a0       ?_Mynode@const_iterator@?$_Tree@KU?$pair@$$CBKE@std@@U_Kfn@?$map@KEU?$less@K@std@@V?$allocator@E@2@@2@U?$less@K@2@V?$allocator@E@2@@std@@QBEPAU_Node@23@XZ 0041d5a0 f i rdKeymap.obj
 0001:0001c5c0       ??0iterator@?$_Tree@KU?$pair@$$CBKE@std@@U_Kfn@?$map@KEU?$less@K@std@@V?$allocator@E@2@@2@U?$less@K@2@V?$allocator@E@2@@std@@QAE@PAU_Node@12@@Z 0041d5c0 f i rdKeymap.obj
 0001:0001c5f0       ??Eiterator@?$_Tree@KU?$pair@$$CBKE@std@@U_Kfn@?$map@KEU?$less@K@std@@V?$allocator@E@2@@2@U?$less@K@2@V?$allocator@E@2@@std@@QAE?AV012@H@Z 0041d5f0 f i rdKeymap.obj
 0001:0001c620       ??9iterator@?$_Tree@KU?$pair@$$CBKE@std@@U_Kfn@?$map@KEU?$less@K@std@@V?$allocator@E@2@@2@U?$less@K@2@V?$allocator@E@2@@std@@QBE_NABV012@@Z 0041d620 f i rdKeymap.obj
 0001:0001c650       ?deallocate@?$allocator@_N@std@@QAEXPAXI@Z 0041d650 f i rdKeymap.obj
 0001:0001c680       ?_Value@?$_Tree@KU?$pair@$$CBK_N@std@@U_Kfn@?$map@K_NU?$less@K@std@@V?$allocator@_N@2@@2@U?$less@K@2@V?$allocator@_N@2@@std@@KAAAU?$pair@$$CBK_N@2@PAU_Node@12@@Z 0041d680 f i rdKeymap.obj
 0001:0001c6a0       ?size@?$_Tree@KU?$pair@$$CBK_N@std@@U_Kfn@?$map@K_NU?$less@K@std@@V?$allocator@_N@2@@2@U?$less@K@2@V?$allocator@_N@2@@std@@QBEIXZ 0041d6a0 f i rdKeymap.obj
 0001:0001c6c0       ?insert@?$_Tree@KU?$pair@$$CBK_N@std@@U_Kfn@?$map@K_NU?$less@K@std@@V?$allocator@_N@2@@2@U?$less@K@2@V?$allocator@_N@2@@std@@QAE?AU?$pair@Viterator@?$_Tree@KU?$pair@$$CBK_N@std@@U_Kfn@?$map@K_NU?$less@K@std@@V?$allocator@_N@2@@2@U?$less@K@2@V?$allocator@_N@2@@std@@_N@2@ABU?$pair@$$CBK_N@2@@Z 0041d6c0 f i rdKeymap.obj
 0001:0001c910       ?erase@?$_Tree@KU?$pair@$$CBK_N@std@@U_Kfn@?$map@K_NU?$less@K@std@@V?$allocator@_N@2@@2@U?$less@K@2@V?$allocator@_N@2@@std@@QAE?AViterator@12@V312@@Z 0041d910 f i rdKeymap.obj
 0001:0001d160       ?_Erase@?$_Tree@KU?$pair@$$CBK_N@std@@U_Kfn@?$map@K_NU?$less@K@std@@V?$allocator@_N@2@@2@U?$less@K@2@V?$allocator@_N@2@@std@@IAEXPAU_Node@12@@Z 0041e160 f i rdKeymap.obj
 0001:0001d220       ?_Init@?$_Tree@KU?$pair@$$CBK_N@std@@U_Kfn@?$map@K_NU?$less@K@std@@V?$allocator@_N@2@@2@U?$less@K@2@V?$allocator@_N@2@@std@@IAEXXZ 0041e220 f i rdKeymap.obj
 0001:0001d310       ?_Lmost@?$_Tree@KU?$pair@$$CBK_N@std@@U_Kfn@?$map@K_NU?$less@K@std@@V?$allocator@_N@2@@2@U?$less@K@2@V?$allocator@_N@2@@std@@IAEAAPAU_Node@12@XZ 0041e310 f i rdKeymap.obj
 0001:0001d340       ?_Rmost@?$_Tree@KU?$pair@$$CBK_N@std@@U_Kfn@?$map@K_NU?$less@K@std@@V?$allocator@_N@2@@2@U?$less@K@2@V?$allocator@_N@2@@std@@IAEAAPAU_Node@12@XZ 0041e340 f i rdKeymap.obj
 0001:0001d370       ?_Root@?$_Tree@KU?$pair@$$CBK_N@std@@U_Kfn@?$map@K_NU?$less@K@std@@V?$allocator@_N@2@@2@U?$less@K@2@V?$allocator@_N@2@@std@@IAEAAPAU_Node@12@XZ 0041e370 f i rdKeymap.obj
 0001:0001d3a0       ??0iterator@?$_Tree@KU?$pair@$$CBK_N@std@@U_Kfn@?$map@K_NU?$less@K@std@@V?$allocator@_N@2@@2@U?$less@K@2@V?$allocator@_N@2@@std@@QAE@PAU_Node@12@@Z 0041e3a0 f i rdKeymap.obj
 0001:0001d3d0       ??Eiterator@?$_Tree@KU?$pair@$$CBK_N@std@@U_Kfn@?$map@K_NU?$less@K@std@@V?$allocator@_N@2@@2@U?$less@K@2@V?$allocator@_N@2@@std@@QAE?AV012@H@Z 0041e3d0 f i rdKeymap.obj
 0001:0001d400       ??9iterator@?$_Tree@KU?$pair@$$CBK_N@std@@U_Kfn@?$map@K_NU?$less@K@std@@V?$allocator@_N@2@@2@U?$less@K@2@V?$allocator@_N@2@@std@@QBE_NABV012@@Z 0041e400 f i rdKeymap.obj
 0001:0001d430       ??0?$pair@Viterator@?$_Tree@KU?$pair@$$CBKE@std@@U_Kfn@?$map@KEU?$less@K@std@@V?$allocator@E@2@@2@U?$less@K@2@V?$allocator@E@2@@std@@_N@std@@QAE@ABViterator@?$_Tree@KU?$pair@$$CBKE@std@@U_Kfn@?$map@KEU?$less@K@std@@V?$allocator@E@2@@2@U?$less@K@2@V?$allocator@E@2@@1@AB_N@Z 0041e430 f i rdKeymap.obj
 0001:0001d460       ??0?$pair@Viterator@?$_Tree@KU?$pair@$$CBK_N@std@@U_Kfn@?$map@K_NU?$less@K@std@@V?$allocator@_N@2@@2@U?$less@K@2@V?$allocator@_N@2@@std@@_N@std@@QAE@ABViterator@?$_Tree@KU?$pair@$$CBK_N@std@@U_Kfn@?$map@K_NU?$less@K@std@@V?$allocator@_N@2@@2@U?$less@K@2@V?$allocator@_N@2@@1@AB_N@Z 0041e460 f i rdKeymap.obj
 0001:0001d490       ??R_Kfn@?$map@KEU?$less@K@std@@V?$allocator@E@2@@std@@QBEABKABU?$pair@$$CBKE@2@@Z 0041e490 f i rdKeymap.obj
 0001:0001d4b0       ?_Color@?$_Tree@KU?$pair@$$CBKE@std@@U_Kfn@?$map@KEU?$less@K@std@@V?$allocator@E@2@@2@U?$less@K@2@V?$allocator@E@2@@std@@KAAAW4_Redbl@12@PAU_Node@12@@Z 0041e4b0 f i rdKeymap.obj
 0001:0001d4d0       ?_Left@?$_Tree@KU?$pair@$$CBKE@std@@U_Kfn@?$map@KEU?$less@K@std@@V?$allocator@E@2@@2@U?$less@K@2@V?$allocator@E@2@@std@@KAAAPAU_Node@12@PAU312@@Z 0041e4d0 f i rdKeymap.obj
 0001:0001d4f0       ?_Parent@?$_Tree@KU?$pair@$$CBKE@std@@U_Kfn@?$map@KEU?$less@K@std@@V?$allocator@E@2@@2@U?$less@K@2@V?$allocator@E@2@@std@@KAAAPAU_Node@12@PAU312@@Z 0041e4f0 f i rdKeymap.obj
 0001:0001d510       ?_Right@?$_Tree@KU?$pair@$$CBKE@std@@U_Kfn@?$map@KEU?$less@K@std@@V?$allocator@E@2@@2@U?$less@K@2@V?$allocator@E@2@@std@@KAAAPAU_Node@12@PAU312@@Z 0041e510 f i rdKeymap.obj
 0001:0001d530       ?_Insert@?$_Tree@KU?$pair@$$CBKE@std@@U_Kfn@?$map@KEU?$less@K@std@@V?$allocator@E@2@@2@U?$less@K@2@V?$allocator@E@2@@std@@IAE?AViterator@12@PAU_Node@12@0ABU?$pair@$$CBKE@2@@Z 0041e530 f i rdKeymap.obj
 0001:0001da00       ?_Lbound@?$_Tree@KU?$pair@$$CBKE@std@@U_Kfn@?$map@KEU?$less@K@std@@V?$allocator@E@2@@2@U?$less@K@2@V?$allocator@E@2@@std@@IBEPAU_Node@12@ABK@Z 0041ea00 f i rdKeymap.obj
 0001:0001dad0       ?_Lrotate@?$_Tree@KU?$pair@$$CBKE@std@@U_Kfn@?$map@KEU?$less@K@std@@V?$allocator@E@2@@2@U?$less@K@2@V?$allocator@E@2@@std@@IAEXPAU_Node@12@@Z 0041ead0 f i rdKeymap.obj
 0001:0001dc40       ?_Max@?$_Tree@KU?$pair@$$CBKE@std@@U_Kfn@?$map@KEU?$less@K@std@@V?$allocator@E@2@@2@U?$less@K@2@V?$allocator@E@2@@std@@KAPAU_Node@12@PAU312@@Z 0041ec40 f i rdKeymap.obj
 0001:0001dcd0       ?_Min@?$_Tree@KU?$pair@$$CBKE@std@@U_Kfn@?$map@KEU?$less@K@std@@V?$allocator@E@2@@2@U?$less@K@2@V?$allocator@E@2@@std@@KAPAU_Node@12@PAU312@@Z 0041ecd0 f i rdKeymap.obj
 0001:0001dd60       ?_Rrotate@?$_Tree@KU?$pair@$$CBKE@std@@U_Kfn@?$map@KEU?$less@K@std@@V?$allocator@E@2@@2@U?$less@K@2@V?$allocator@E@2@@std@@IAEXPAU_Node@12@@Z 0041ed60 f i rdKeymap.obj
 0001:0001ded0       ?_Buynode@?$_Tree@KU?$pair@$$CBKE@std@@U_Kfn@?$map@KEU?$less@K@std@@V?$allocator@E@2@@2@U?$less@K@2@V?$allocator@E@2@@std@@IAEPAU_Node@12@PAU312@W4_Redbl@12@@Z 0041eed0 f i rdKeymap.obj
 0001:0001df20       ?_Destval@?$_Tree@KU?$pair@$$CBKE@std@@U_Kfn@?$map@KEU?$less@K@std@@V?$allocator@E@2@@2@U?$less@K@2@V?$allocator@E@2@@std@@IAEXPAU?$pair@$$CBKE@2@@Z 0041ef20 f i rdKeymap.obj
 0001:0001df50       ??0const_iterator@?$_Tree@KU?$pair@$$CBKE@std@@U_Kfn@?$map@KEU?$less@K@std@@V?$allocator@E@2@@2@U?$less@K@2@V?$allocator@E@2@@std@@QAE@PAU_Node@12@@Z 0041ef50 f i rdKeymap.obj
 0001:0001df70       ??Eiterator@?$_Tree@KU?$pair@$$CBKE@std@@U_Kfn@?$map@KEU?$less@K@std@@V?$allocator@E@2@@2@U?$less@K@2@V?$allocator@E@2@@std@@QAEAAV012@XZ 0041ef70 f i rdKeymap.obj
 0001:0001df90       ??Fiterator@?$_Tree@KU?$pair@$$CBKE@std@@U_Kfn@?$map@KEU?$less@K@std@@V?$allocator@E@2@@2@U?$less@K@2@V?$allocator@E@2@@std@@QAEAAV012@XZ 0041ef90 f i rdKeymap.obj
 0001:0001dfb0       ??R_Kfn@?$map@K_NU?$less@K@std@@V?$allocator@_N@2@@std@@QBEABKABU?$pair@$$CBK_N@2@@Z 0041efb0 f i rdKeymap.obj
 0001:0001dfd0       ?_Color@?$_Tree@KU?$pair@$$CBK_N@std@@U_Kfn@?$map@K_NU?$less@K@std@@V?$allocator@_N@2@@2@U?$less@K@2@V?$allocator@_N@2@@std@@KAAAW4_Redbl@12@PAU_Node@12@@Z 0041efd0 f i rdKeymap.obj
 0001:0001dff0       ?_Key@?$_Tree@KU?$pair@$$CBK_N@std@@U_Kfn@?$map@K_NU?$less@K@std@@V?$allocator@_N@2@@2@U?$less@K@2@V?$allocator@_N@2@@std@@KAABKPAU_Node@12@@Z 0041eff0 f i rdKeymap.obj
 0001:0001e020       ?_Left@?$_Tree@KU?$pair@$$CBK_N@std@@U_Kfn@?$map@K_NU?$less@K@std@@V?$allocator@_N@2@@2@U?$less@K@2@V?$allocator@_N@2@@std@@KAAAPAU_Node@12@PAU312@@Z 0041f020 f i rdKeymap.obj
 0001:0001e040       ?_Parent@?$_Tree@KU?$pair@$$CBK_N@std@@U_Kfn@?$map@K_NU?$less@K@std@@V?$allocator@_N@2@@2@U?$less@K@2@V?$allocator@_N@2@@std@@KAAAPAU_Node@12@PAU312@@Z 0041f040 f i rdKeymap.obj
 0001:0001e060       ?_Right@?$_Tree@KU?$pair@$$CBK_N@std@@U_Kfn@?$map@K_NU?$less@K@std@@V?$allocator@_N@2@@2@U?$less@K@2@V?$allocator@_N@2@@std@@KAAAPAU_Node@12@PAU312@@Z 0041f060 f i rdKeymap.obj
 0001:0001e080       ?_Insert@?$_Tree@KU?$pair@$$CBK_N@std@@U_Kfn@?$map@K_NU?$less@K@std@@V?$allocator@_N@2@@2@U?$less@K@2@V?$allocator@_N@2@@std@@IAE?AViterator@12@PAU_Node@12@0ABU?$pair@$$CBK_N@2@@Z 0041f080 f i rdKeymap.obj
 0001:0001e550       ?_Lrotate@?$_Tree@KU?$pair@$$CBK_N@std@@U_Kfn@?$map@K_NU?$less@K@std@@V?$allocator@_N@2@@2@U?$less@K@2@V?$allocator@_N@2@@std@@IAEXPAU_Node@12@@Z 0041f550 f i rdKeymap.obj
 0001:0001e6c0       ?_Max@?$_Tree@KU?$pair@$$CBK_N@std@@U_Kfn@?$map@K_NU?$less@K@std@@V?$allocator@_N@2@@2@U?$less@K@2@V?$allocator@_N@2@@std@@KAPAU_Node@12@PAU312@@Z 0041f6c0 f i rdKeymap.obj
 0001:0001e750       ?_Min@?$_Tree@KU?$pair@$$CBK_N@std@@U_Kfn@?$map@K_NU?$less@K@std@@V?$allocator@_N@2@@2@U?$less@K@2@V?$allocator@_N@2@@std@@KAPAU_Node@12@PAU312@@Z 0041f750 f i rdKeymap.obj
 0001:0001e7e0       ?_Rrotate@?$_Tree@KU?$pair@$$CBK_N@std@@U_Kfn@?$map@K_NU?$less@K@std@@V?$allocator@_N@2@@2@U?$less@K@2@V?$allocator@_N@2@@std@@IAEXPAU_Node@12@@Z 0041f7e0 f i rdKeymap.obj
 0001:0001e950       ?_Buynode@?$_Tree@KU?$pair@$$CBK_N@std@@U_Kfn@?$map@K_NU?$less@K@std@@V?$allocator@_N@2@@2@U?$less@K@2@V?$allocator@_N@2@@std@@IAEPAU_Node@12@PAU312@W4_Redbl@12@@Z 0041f950 f i rdKeymap.obj
 0001:0001e9a0       ?_Destval@?$_Tree@KU?$pair@$$CBK_N@std@@U_Kfn@?$map@K_NU?$less@K@std@@V?$allocator@_N@2@@2@U?$less@K@2@V?$allocator@_N@2@@std@@IAEXPAU?$pair@$$CBK_N@2@@Z 0041f9a0 f i rdKeymap.obj
 0001:0001e9d0       ??0const_iterator@?$_Tree@KU?$pair@$$CBK_N@std@@U_Kfn@?$map@K_NU?$less@K@std@@V?$allocator@_N@2@@2@U?$less@K@2@V?$allocator@_N@2@@std@@QAE@PAU_Node@12@@Z 0041f9d0 f i rdKeymap.obj
 0001:0001e9f0       ?_Mynode@const_iterator@?$_Tree@KU?$pair@$$CBK_N@std@@U_Kfn@?$map@K_NU?$less@K@std@@V?$allocator@_N@2@@2@U?$less@K@2@V?$allocator@_N@2@@std@@QBEPAU_Node@23@XZ 0041f9f0 f i rdKeymap.obj
 0001:0001ea10       ??Eiterator@?$_Tree@KU?$pair@$$CBK_N@std@@U_Kfn@?$map@K_NU?$less@K@std@@V?$allocator@_N@2@@2@U?$less@K@2@V?$allocator@_N@2@@std@@QAEAAV012@XZ 0041fa10 f i rdKeymap.obj
 0001:0001ea30       ??Fiterator@?$_Tree@KU?$pair@$$CBK_N@std@@U_Kfn@?$map@K_NU?$less@K@std@@V?$allocator@_N@2@@2@U?$less@K@2@V?$allocator@_N@2@@std@@QAEAAV012@XZ 0041fa30 f i rdKeymap.obj
 0001:0001ea50       ??8iterator@?$_Tree@KU?$pair@$$CBK_N@std@@U_Kfn@?$map@K_NU?$less@K@std@@V?$allocator@_N@2@@2@U?$less@K@2@V?$allocator@_N@2@@std@@QBE_NABV012@@Z 0041fa50 f i rdKeymap.obj
 0001:0001ea80       ?_Charalloc@?$allocator@E@std@@QAEPADI@Z 0041fa80 f i rdKeymap.obj
 0001:0001eab0       ?_Root@?$_Tree@KU?$pair@$$CBKE@std@@U_Kfn@?$map@KEU?$less@K@std@@V?$allocator@E@2@@2@U?$less@K@2@V?$allocator@E@2@@std@@IBEAAPAU_Node@12@XZ 0041fab0 f i rdKeymap.obj
 0001:0001eae0       ?_Consval@?$_Tree@KU?$pair@$$CBKE@std@@U_Kfn@?$map@KEU?$less@K@std@@V?$allocator@E@2@@2@U?$less@K@2@V?$allocator@E@2@@std@@IAEXPAU?$pair@$$CBKE@2@ABU32@@Z 0041fae0 f i rdKeymap.obj
 0001:0001eb10       ?_Dec@const_iterator@?$_Tree@KU?$pair@$$CBKE@std@@U_Kfn@?$map@KEU?$less@K@std@@V?$allocator@E@2@@2@U?$less@K@2@V?$allocator@E@2@@std@@QAEXXZ 0041fb10 f i rdKeymap.obj
 0001:0001ec20       ?_Inc@const_iterator@?$_Tree@KU?$pair@$$CBKE@std@@U_Kfn@?$map@KEU?$less@K@std@@V?$allocator@E@2@@2@U?$less@K@2@V?$allocator@E@2@@std@@QAEXXZ 0041fc20 f i rdKeymap.obj
 0001:0001ed00       ?_Charalloc@?$allocator@_N@std@@QAEPADI@Z 0041fd00 f i rdKeymap.obj
 0001:0001ed30       ?_Consval@?$_Tree@KU?$pair@$$CBK_N@std@@U_Kfn@?$map@K_NU?$less@K@std@@V?$allocator@_N@2@@2@U?$less@K@2@V?$allocator@_N@2@@std@@IAEXPAU?$pair@$$CBK_N@2@ABU32@@Z 0041fd30 f i rdKeymap.obj
 0001:0001ed60       ?_Dec@const_iterator@?$_Tree@KU?$pair@$$CBK_N@std@@U_Kfn@?$map@K_NU?$less@K@std@@V?$allocator@_N@2@@2@U?$less@K@2@V?$allocator@_N@2@@std@@QAEXXZ 0041fd60 f i rdKeymap.obj
 0001:0001ee70       ?_Inc@const_iterator@?$_Tree@KU?$pair@$$CBK_N@std@@U_Kfn@?$map@K_NU?$less@K@std@@V?$allocator@_N@2@@2@U?$less@K@2@V?$allocator@_N@2@@std@@QAEXXZ 0041fe70 f i rdKeymap.obj
 0001:0001ef50       ?swap@std@@YAXAAW4_Redbl@?$_Tree@KU?$pair@$$CBKE@std@@U_Kfn@?$map@KEU?$less@K@std@@V?$allocator@E@2@@2@U?$less@K@2@V?$allocator@E@2@@1@0@Z 0041ff50 f i rdKeymap.obj
 0001:0001ef80       ?swap@std@@YAXAAW4_Redbl@?$_Tree@KU?$pair@$$CBK_N@std@@U_Kfn@?$map@K_NU?$less@K@std@@V?$allocator@_N@2@@2@U?$less@K@2@V?$allocator@_N@2@@1@0@Z 0041ff80 f i rdKeymap.obj
 0001:0001efb0       ?_Destroy@std@@YAXPAU?$pair@$$CBKE@1@@Z 0041ffb0 f i rdKeymap.obj
 0001:0001efc0       ?_Destroy@std@@YAXPAU?$pair@$$CBK_N@1@@Z 0041ffc0 f i rdKeymap.obj
 0001:0001efd0       ?_Construct@std@@YAXPAU?$pair@$$CBKE@1@ABU21@@Z 0041ffd0 f i rdKeymap.obj
 0001:0001f020       ?_Construct@std@@YAXPAU?$pair@$$CBK_N@1@ABU21@@Z 00420020 f i rdKeymap.obj
 0001:0001f230       ??0rdMenu@@QAE@PAVrdServer@@@Z 00420230 f   rdMenu.obj
 0001:0001f4b0       ??1rdMenu@@QAE@XZ          004204b0 f   rdMenu.obj
 0001:0001f560       ?AddTrayIcon@rdMenu@@IAEXXZ 00420560 f   rdMenu.obj
 0001:0001f5b0       ?DelTrayIcon@rdMenu@@IAEXXZ 004205b0 f   rdMenu.obj
 0001:0001f5d0       ?FlashTrayIcon@rdMenu@@IAEXH@Z 004205d0 f   rdMenu.obj
 0001:0001f600       ?GetIPAddrString@@YAXPADH@Z 00420600 f   rdMenu.obj
 0001:0001f7a0       ?SendTrayMsg@rdMenu@@IAEXKH@Z 004207a0 f   rdMenu.obj
 0001:0001faf0       ?WndProc@rdMenu@@KGJPAUHWND__@@IIJ@Z 00420af0 f   rdMenu.obj
 0001:00020730       ?AllowProperties@rdProperties@@QAEHXZ 00421730 f i rdMenu.obj
 0001:00020750       ?AllowShutdown@rdProperties@@QAEHXZ 00421750 f i rdMenu.obj
 0001:00020770       ?AllowEditClients@rdProperties@@QAEHXZ 00421770 f i rdMenu.obj
 0001:00020790       ??0rdProperties@@QAE@XZ    00421790 f   rdProperties.obj
 0001:000207f0       ??1rdProperties@@QAE@XZ    004217f0 f   rdProperties.obj
 0001:00020810       ?Init@rdProperties@@QAEHPAVrdServer@@@Z 00421810 f   rdProperties.obj
 0001:000209b0       ?Show@rdProperties@@QAEXHH@Z 004219b0 f   rdProperties.obj
 0001:00020d90       ?DialogProc@rdProperties@@SGHPAUHWND__@@IIJ@Z 00421d90 f   rdProperties.obj
 0001:00022020       ?InitPortSettings@rdProperties@@AAEXPAUHWND__@@@Z 00423020 f   rdProperties.obj
 0001:000222a0       ?LoadInt@rdProperties@@IAEJPAUHKEY__@@PBDJ@Z 004232a0 f   rdProperties.obj
 0001:00022310       ?LoadPassword@rdProperties@@IAEXPAUHKEY__@@PADPBD@Z 00423310 f   rdProperties.obj
 0001:00022370       ?LoadStringA@rdProperties@@IAEPADPAUHKEY__@@PBD@Z 00423370 f   rdProperties.obj
 0001:00022440       ?Load@rdProperties@@QAEXH@Z 00423440 f   rdProperties.obj
 0001:00022b20       ?LoadUserPrefs@rdProperties@@IAEXPAUHKEY__@@@Z 00423b20 f   rdProperties.obj
 0001:00022e00       ?ApplyUserPrefs@rdProperties@@IAEXXZ 00423e00 f   rdProperties.obj
 0001:000230c0       ?SaveInt@rdProperties@@IAEXPAUHKEY__@@PBDJ@Z 004240c0 f   rdProperties.obj
 0001:000230f0       ?SavePassword@rdProperties@@IAEXPAUHKEY__@@PBD1@Z 004240f0 f   rdProperties.obj
 0001:00023120       ?Save@rdProperties@@QAEXXZ 00424120 f   rdProperties.obj
 0001:00023270       ?SaveUserPrefs@rdProperties@@IAEXPAUHKEY__@@@Z 00424270 f   rdProperties.obj
 0001:00023500       ??0FromText@rdPasswd@@QAE@PAD@Z 00424500 f i rdProperties.obj
 0001:00023560       ??1FromText@rdPasswd@@QAE@XZ 00424560 f i rdProperties.obj
 0001:00023580       ??BFromText@rdPasswd@@QBEPBDXZ 00424580 f i rdProperties.obj
 0001:000235a0       ??0FromClear@rdPasswd@@QAE@XZ 004245a0 f i rdProperties.obj
 0001:000235e0       ??1FromClear@rdPasswd@@QAE@XZ 004245e0 f i rdProperties.obj
 0001:00023600       ??BFromClear@rdPasswd@@QBEPBDXZ 00424600 f i rdProperties.obj
 0001:00023620       ??0rdRegion@@QAE@XZ        00424620 f   rdRegion.obj
 0001:00023640       ??1rdRegion@@QAE@XZ        00424640 f   rdRegion.obj
 0001:00023660       ?AddRect@rdRegion@@QAEXAAUtagRECT@@@Z 00424660 f   rdRegion.obj
 0001:000236d0       ?SubtractRect@rdRegion@@QAEXAAUtagRECT@@@Z 004246d0 f   rdRegion.obj
 0001:00023730       ?Clear@rdRegion@@QAEXXZ    00424730 f   rdRegion.obj
 0001:00023760       ?Combine@rdRegion@@QAEXAAV1@@Z 00424760 f   rdRegion.obj
 0001:000237f0       ?Intersect@rdRegion@@QAEXAAV1@@Z 004247f0 f   rdRegion.obj
 0001:00023840       ?Subtract@rdRegion@@QAEXAAV1@@Z 00424840 f   rdRegion.obj
 0001:00023890       ?Rectangles@rdRegion@@QAEHAAV?$list@UtagRECT@@V?$allocator@UtagRECT@@@std@@@std@@@Z 00424890 f   rdRegion.obj
 0001:00023960       ?Rectangles@rdRegion@@QAEHAAV?$list@UtagRECT@@V?$allocator@UtagRECT@@@std@@@std@@AAUtagRECT@@@Z 00424960 f   rdRegion.obj
 0001:000239e0       ?push_front@?$list@UtagRECT@@V?$allocator@UtagRECT@@@std@@@std@@QAEXABUtagRECT@@@Z 004249e0 f i rdRegion.obj
 0001:00023a20       ??0rdServer@@QAE@XZ        00424a20 f   rdServer.obj
 0001:00023d00       ??1rdServer@@QAE@XZ        00424d00 f   rdServer.obj
 0001:00023f90       ??_GrdSockConnect@@QAEPAXI@Z 00424f90 f i rdServer.obj
 0001:00023fd0       ??_GrdHTTPConnect@@QAEPAXI@Z 00424fd0 f i rdServer.obj
 0001:00024010       ??_GrdDesktop@@QAEPAXI@Z   00425010 f i rdServer.obj
 0001:00024050       ?DisableClients@rdServer@@UAEXH@Z 00425050 f   rdServer.obj
 0001:00024070       ?ClientsDisabled@rdServer@@UAEHXZ 00425070 f   rdServer.obj
 0001:00024090       ?AddClient@rdServer@@UAEFPAVVSocket@@HH@Z 00425090 f   rdServer.obj
 0001:000240d0       ?AddClient@rdServer@@UAEFPAVVSocket@@HHHHHH@Z 004250d0 f   rdServer.obj
 0001:000243d0       ?Authenticated@rdServer@@UAEHF@Z 004253d0 f   rdServer.obj
 0001:00024720       ?KillClient@rdServer@@UAEXF@Z 00425720 f   rdServer.obj
 0001:000248f0       ?KillAuthClients@rdServer@@UAEXXZ 004258f0 f   rdServer.obj
 0001:000249f0       ?KillUnauthClients@rdServer@@UAEXXZ 004259f0 f   rdServer.obj
 0001:00024af0       ?AuthClientCount@rdServer@@UAEIXZ 00425af0 f   rdServer.obj
 0001:00024b60       ?UnauthClientCount@rdServer@@UAEIXZ 00425b60 f   rdServer.obj
 0001:00024bd0       ?WaitUntilAuthEmpty@rdServer@@UAEXXZ 00425bd0 f   rdServer.obj
 0001:00024c60       ?WaitUntilUnauthEmpty@rdServer@@UAEXXZ 00425c60 f   rdServer.obj
 0001:00024cf0       ?GetClient@rdServer@@UAEPAVrdClient@@F@Z 00425cf0 f   rdServer.obj
 0001:00024d30       ?ClientList@rdServer@@UAE?AV?$list@FV?$allocator@F@std@@@std@@XZ 00425d30 f   rdServer.obj
 0001:00024de0       ?SetTeleport@rdServer@@UAEXFH@Z 00425de0 f   rdServer.obj
 0001:00024e70       ?SetCapability@rdServer@@UAEXFH@Z 00425e70 f   rdServer.obj
 0001:00024f00       ?SetKeyboardEnabled@rdServer@@UAEXFH@Z 00425f00 f   rdServer.obj
 0001:00024f90       ?SetPointerEnabled@rdServer@@UAEXFH@Z 00425f90 f   rdServer.obj
 0001:00025020       ?IsTeleport@rdServer@@UAEHF@Z 00426020 f   rdServer.obj
 0001:000250d0       ?GetCapability@rdServer@@UAEHF@Z 004260d0 f   rdServer.obj
 0001:00025180       ?GetKeyboardEnabled@rdServer@@UAEHF@Z 00426180 f   rdServer.obj
 0001:00025230       ?GetPointerEnabled@rdServer@@UAEHF@Z 00426230 f   rdServer.obj
 0001:000252e0       ?GetClientName@rdServer@@UAEPBDF@Z 004262e0 f   rdServer.obj
 0001:00025390       ?RemoveClient@rdServer@@UAEXF@Z 00426390 f   rdServer.obj
 0001:000256f0       ?AddNotify@rdServer@@UAEHPAUHWND__@@@Z 004266f0 f   rdServer.obj
 0001:00025770       ?RemNotify@rdServer@@UAEHPAUHWND__@@@Z 00426770 f   rdServer.obj
 0001:00025870       ?DoNotify@rdServer@@MAEXIIJ@Z 00426870 f   rdServer.obj
 0001:00025940       ?RequestUpdate@rdServer@@UAEXXZ 00426940 f   rdServer.obj
 0001:000259b0       ?TriggerUpdate@rdServer@@UAEXXZ 004269b0 f   rdServer.obj
 0001:00025a90       ?UpdateRect@rdServer@@UAEXAAUtagRECT@@@Z 00426a90 f   rdServer.obj
 0001:00025b70       ?UpdateRegion@rdServer@@UAEXAAVrdRegion@@@Z 00426b70 f   rdServer.obj
 0001:00025c50       ?CopyRect@rdServer@@UAEXAAUtagRECT@@AAUtagPOINT@@@Z 00426c50 f   rdServer.obj
 0001:00025d30       ?UpdateMouse@rdServer@@UAEXXZ 00426d30 f   rdServer.obj
 0001:00025e10       ?UpdateClipText@rdServer@@UAEXPAD@Z 00426e10 f   rdServer.obj
 0001:00025ef0       ?UpdatePalette@rdServer@@UAEXXZ 00426ef0 f   rdServer.obj
 0001:00025fd0       ?UpdateLocalClipText@rdServer@@UAEXPAD@Z 00426fd0 f   rdServer.obj
 0001:00026050       ?SetName@rdServer@@UAEXPBD@Z 00427050 f   rdServer.obj
 0001:000260b0       ?SetPorts@rdServer@@UAEXII@Z 004270b0 f   rdServer.obj
 0001:00026130       ?SetPassword@rdServer@@UAEXPBD@Z 00427130 f   rdServer.obj
 0001:00026160       ?GetPassword@rdServer@@UAEXPAD@Z 00427160 f   rdServer.obj
 0001:00026190       ?SetPasswordViewOnly@rdServer@@UAEXPBD@Z 00427190 f   rdServer.obj
 0001:000261c0       ?GetPasswordViewOnly@rdServer@@UAEXPAD@Z 004271c0 f   rdServer.obj
 0001:000261f0       ?EnableRemoteInputs@rdServer@@UAEXH@Z 004271f0 f   rdServer.obj
 0001:00026210       ?RemoteInputsEnabled@rdServer@@UAEHXZ 00427210 f   rdServer.obj
 0001:00026230       ?DisableLocalInputs@rdServer@@UAEXH@Z 00427230 f   rdServer.obj
 0001:00026250       ?LocalInputsDisabled@rdServer@@UAEHXZ 00427250 f   rdServer.obj
 0001:00026270       ?SockConnect@rdServer@@UAEHH@Z 00427270 f   rdServer.obj
 0001:00026640       ?SockConnected@rdServer@@UAEHXZ 00427640 f   rdServer.obj
 0001:00026670       ?SetHttpdEnabled@rdServer@@UAEHHH@Z 00427670 f   rdServer.obj
 0001:00026730       ?PollUnderCursor@rdServer@@UAEXH@Z 00427730 f i rdServer.obj
 0001:00026760       ?PollUnderCursor@rdServer@@UAEHXZ 00427760 f i rdServer.obj
 0001:00026780       ?PollForeground@rdServer@@UAEXH@Z 00427780 f i rdServer.obj
 0001:000267b0       ?PollForeground@rdServer@@UAEHXZ 004277b0 f i rdServer.obj
 0001:000267d0       ?PollFullScreen@rdServer@@UAEXH@Z 004277d0 f i rdServer.obj
 0001:00026800       ?SetLoopbackOnly@rdServer@@UAEHH@Z 00427800 f   rdServer.obj
 0001:00026870       ?PollFullScreen@rdServer@@UAEHXZ 00427870 f i rdServer.obj
 0001:00026890       ?PollConsoleOnly@rdServer@@UAEXH@Z 00427890 f i rdServer.obj
 0001:000268c0       ?PollConsoleOnly@rdServer@@UAEHXZ 004278c0 f i rdServer.obj
 0001:000268e0       ?LoopbackOnly@rdServer@@UAEHXZ 004278e0 f   rdServer.obj
 0001:00026900       ?PollOnEventOnly@rdServer@@UAEXH@Z 00427900 f i rdServer.obj
 0001:00026930       ?SetDisableTrayIcon@rdServer@@UAEHH@Z 00427930 f   rdServer.obj
 0001:00026960       ?PollOnEventOnly@rdServer@@UAEHXZ 00427960 f i rdServer.obj
 0001:00026980       ?GetPort@rdServer@@UAEIXZ  00427980 f i rdServer.obj
 0001:000269a0       ?GetDisableTrayIcon@rdServer@@UAEHXZ 004279a0 f   rdServer.obj
 0001:000269c0       ?GetHttpPort@rdServer@@UAEIXZ 004279c0 f i rdServer.obj
 0001:000269e0       ?CORBAConnect@rdServer@@UAEHH@Z 004279e0 f   rdServer.obj
 0001:00026af0       ?SetAutoPortSelect@rdServer@@UAEXH@Z 00427af0 f i rdServer.obj
 0001:00026b60       ?AutoPortSelect@rdServer@@UAEHXZ 00427b60 f i rdServer.obj
 0001:00026b80       ?SetConnectPriority@rdServer@@UAEXI@Z 00427b80 f i rdServer.obj
 0001:00026ba0       ?ConnectPriority@rdServer@@UAEIXZ 00427ba0 f i rdServer.obj
 0001:00026bc0       ?SetAuthRequired@rdServer@@UAEXH@Z 00427bc0 f i rdServer.obj
 0001:00026be0       ??0rdCorbaConnect@@QAE@XZ  00427be0 f i rdServer.obj
 0001:00026c00       ?Init@rdCorbaConnect@@UAEHPAVrdServer@@@Z 00427c00 f i rdServer.obj
 0001:00026c20       ?AuthRequired@rdServer@@UAEHXZ 00427c20 f i rdServer.obj
 0001:00026c40       ?CORBAConnected@rdServer@@UAEHXZ 00427c40 f   rdServer.obj
 0001:00026c70       ?SetBeepConnect@rdServer@@UAEXH@Z 00427c70 f i rdServer.obj
 0001:00026c90       ?GetScreenInfo@rdServer@@UAEXAAH00@Z 00427c90 f   rdServer.obj
 0001:00026da0       ?GetBeepConnect@rdServer@@UAEHXZ 00427da0 f i rdServer.obj
 0001:00026dc0       ?SetBeepDisconnect@rdServer@@UAEXH@Z 00427dc0 f i rdServer.obj
 0001:00026de0       ?GetBeepDisconnect@rdServer@@UAEHXZ 00427de0 f i rdServer.obj
 0001:00026e00       ?SetQuerySetting@rdServer@@UAEXI@Z 00427e00 f i rdServer.obj
 0001:00026e20       ?QuerySetting@rdServer@@UAEIXZ 00427e20 f i rdServer.obj
 0001:00026e40       ?SetQueryTimeout@rdServer@@UAEXI@Z 00427e40 f i rdServer.obj
 0001:00026e60       ?QueryTimeout@rdServer@@UAEIXZ 00427e60 f i rdServer.obj
 0001:00026e80       ?SetAuthHosts@rdServer@@UAEXPBD@Z 00427e80 f   rdServer.obj
 0001:00026f60       ?SetQueryAccept@rdServer@@UAEXH@Z 00427f60 f i rdServer.obj
 0001:00026f80       ?QueryAccept@rdServer@@UAEHXZ 00427f80 f i rdServer.obj
 0001:00026fa0       ?SetQueryAllowNoPass@rdServer@@UAEXH@Z 00427fa0 f i rdServer.obj
 0001:00026fc0       ?QueryAllowNoPass@rdServer@@UAEHXZ 00427fc0 f i rdServer.obj
 0001:00026fe0       ?HttpdEnabled@rdServer@@UAEHXZ 00427fe0 f i rdServer.obj
 0001:00027000       ?AuthHosts@rdServer@@UAEPADXZ 00428000 f   rdServer.obj
 0001:000270a0       ?HttpdParamsEnabled@rdServer@@UAEHXZ 004280a0 f i rdServer.obj
 0001:000270c0       ?SetLoopbackOk@rdServer@@UAEXH@Z 004280c0 f i rdServer.obj
 0001:000270e0       ?LoopbackOk@rdServer@@UAEHXZ 004280e0 f i rdServer.obj
 0001:00027100       ?SetLockSettings@rdServer@@UAEXH@Z 00428100 f i rdServer.obj
 0001:00027120       ?LockSettings@rdServer@@UAEHXZ 00428120 f i rdServer.obj
 0001:00027140       ?SetAutoIdleDisconnectTimeout@rdServer@@UAEXI@Z 00428140 f i rdServer.obj
 0001:00027160       ?AutoIdleDisconnectTimeout@rdServer@@UAEIXZ 00428160 f i rdServer.obj
 0001:00027180       ?EnableRemoveWallpaper@rdServer@@UAEXH@Z 00428180 f i rdServer.obj
 0001:000271a0       ?VerifyHost@rdServer@@UAE?AW4AcceptQueryReject@1@PBD@Z 004281a0 f   rdServer.obj
 0001:00027580       ?MatchStringToTemplate@@YAHPBDI0I@Z 00428580 f i rdServer.obj
 0001:00027600       ?RemoveWallpaperEnabled@rdServer@@UAEHXZ 00428600 f i rdServer.obj
 0001:00027620       ?AdjustVerification@rdServer@@UAE?AW4AcceptQueryReject@1@W421@@Z 00428620 f   rdServer.obj
 0001:000276d0       ?AddAuthHostsBlacklist@rdServer@@UAEXPBD@Z 004286d0 f   rdServer.obj
 0001:00027880       ?RemAuthHostsBlacklist@rdServer@@UAEXPBD@Z 00428880 f   rdServer.obj
 0001:00027950       ??0?$list@FV?$allocator@F@std@@@std@@QAE@ABV?$allocator@F@1@@Z 00428950 f i rdServer.obj
 0001:00027990       ??0?$list@FV?$allocator@F@std@@@std@@QAE@ABV01@@Z 00428990 f i rdServer.obj
 0001:00027a10       ??1?$list@FV?$allocator@F@std@@@std@@QAE@XZ 00428a10 f i rdServer.obj
 0001:00027a70       ??4?$list@FV?$allocator@F@std@@@std@@QAEAAV01@ABV01@@Z 00428a70 f i rdServer.obj
 0001:00027b60       ?begin@?$list@FV?$allocator@F@std@@@std@@QAE?AViterator@12@XZ 00428b60 f i rdServer.obj
 0001:00027ba0       ?end@?$list@FV?$allocator@F@std@@@std@@QAE?AViterator@12@XZ 00428ba0 f i rdServer.obj
 0001:00027bd0       ?size@?$list@FV?$allocator@F@std@@@std@@QBEIXZ 00428bd0 f i rdServer.obj
 0001:00027bf0       ?empty@?$list@FV?$allocator@F@std@@@std@@QBE_NXZ 00428bf0 f i rdServer.obj
 0001:00027c10       ?push_back@?$list@FV?$allocator@F@std@@@std@@QAEXABF@Z 00428c10 f i rdServer.obj
 0001:00027c50       ?erase@?$list@FV?$allocator@F@std@@@std@@QAE?AViterator@12@V312@@Z 00428c50 f i rdServer.obj
 0001:00027d10       ??0iterator@?$list@FV?$allocator@F@std@@@std@@QAE@XZ 00428d10 f i rdServer.obj
 0001:00027d30       ??Diterator@?$list@FV?$allocator@F@std@@@std@@QBEAAFXZ 00428d30 f i rdServer.obj
 0001:00027d60       ??Eiterator@?$list@FV?$allocator@F@std@@@std@@QAE?AV012@H@Z 00428d60 f i rdServer.obj
 0001:00027d90       ??9iterator@?$list@FV?$allocator@F@std@@@std@@QBE_NABV012@@Z 00428d90 f i rdServer.obj
 0001:00027dc0       ??0?$list@PAUHWND__@@V?$allocator@PAUHWND__@@@std@@@std@@QAE@ABV?$allocator@PAUHWND__@@@1@@Z 00428dc0 f i rdServer.obj
 0001:00027e00       ??1?$list@PAUHWND__@@V?$allocator@PAUHWND__@@@std@@@std@@QAE@XZ 00428e00 f i rdServer.obj
 0001:00027e60       ?begin@?$list@PAUHWND__@@V?$allocator@PAUHWND__@@@std@@@std@@QAE?AViterator@12@XZ 00428e60 f i rdServer.obj
 0001:00027ea0       ?end@?$list@PAUHWND__@@V?$allocator@PAUHWND__@@@std@@@std@@QAE?AViterator@12@XZ 00428ea0 f i rdServer.obj
 0001:00027ed0       ?push_front@?$list@PAUHWND__@@V?$allocator@PAUHWND__@@@std@@@std@@QAEXABQAUHWND__@@@Z 00428ed0 f i rdServer.obj
 0001:00027f10       ?erase@?$list@PAUHWND__@@V?$allocator@PAUHWND__@@@std@@@std@@QAE?AViterator@12@V312@@Z 00428f10 f i rdServer.obj
 0001:00027fd0       ??0iterator@?$list@PAUHWND__@@V?$allocator@PAUHWND__@@@std@@@std@@QAE@XZ 00428fd0 f i rdServer.obj
 0001:00027ff0       ??Diterator@?$list@PAUHWND__@@V?$allocator@PAUHWND__@@@std@@@std@@QBEAAPAUHWND__@@XZ 00428ff0 f i rdServer.obj
 0001:00028020       ??Eiterator@?$list@PAUHWND__@@V?$allocator@PAUHWND__@@@std@@@std@@QAE?AV012@H@Z 00429020 f i rdServer.obj
 0001:00028050       ??9iterator@?$list@PAUHWND__@@V?$allocator@PAUHWND__@@@std@@@std@@QBE_NABV012@@Z 00429050 f i rdServer.obj
 0001:00028080       ?begin@?$list@FV?$allocator@F@std@@@std@@QBE?AVconst_iterator@12@XZ 00429080 f i rdServer.obj
 0001:000280c0       ?end@?$list@FV?$allocator@F@std@@@std@@QBE?AVconst_iterator@12@XZ 004290c0 f i rdServer.obj
 0001:000280f0       ?insert@?$list@FV?$allocator@F@std@@@std@@QAE?AViterator@12@V312@ABF@Z 004290f0 f i rdServer.obj
 0001:000281b0       ?insert@?$list@FV?$allocator@F@std@@@std@@QAEXViterator@12@Vconst_iterator@12@1@Z 004291b0 f i rdServer.obj
 0001:00028200       ?erase@?$list@FV?$allocator@F@std@@@std@@QAE?AViterator@12@V312@0@Z 00429200 f i rdServer.obj
 0001:00028260       ?_Buynode@?$list@FV?$allocator@F@std@@@std@@IAEPAU_Node@12@PAU312@0@Z 00429260 f i rdServer.obj
 0001:000282d0       ?_Freenode@?$list@FV?$allocator@F@std@@@std@@IAEXPAU_Node@12@@Z 004292d0 f i rdServer.obj
 0001:00028300       ?_Next@_Acc@?$list@FV?$allocator@F@std@@@std@@SAAAPAU_Node@23@PAU423@@Z 00429300 f i rdServer.obj
 0001:00028320       ?_Prev@_Acc@?$list@FV?$allocator@F@std@@@std@@SAAAPAU_Node@23@PAU423@@Z 00429320 f i rdServer.obj
 0001:00028340       ?_Value@_Acc@?$list@FV?$allocator@F@std@@@std@@SAAAFPAU_Node@23@@Z 00429340 f i rdServer.obj
 0001:00028360       ?destroy@?$allocator@F@std@@QAEXPAF@Z 00429360 f i rdServer.obj
 0001:00028390       ??0const_iterator@?$list@FV?$allocator@F@std@@@std@@QAE@XZ 00429390 f i rdServer.obj
 0001:000283b0       ??Dconst_iterator@?$list@FV?$allocator@F@std@@@std@@QBEABFXZ 004293b0 f i rdServer.obj
 0001:000283e0       ??Econst_iterator@?$list@FV?$allocator@F@std@@@std@@QAEAAV012@XZ 004293e0 f i rdServer.obj
 0001:00028410       ??9const_iterator@?$list@FV?$allocator@F@std@@@std@@QBE_NABV012@@Z 00429410 f i rdServer.obj
 0001:00028440       ?_Mynode@const_iterator@?$list@FV?$allocator@F@std@@@std@@QBEPAU_Node@23@XZ 00429440 f i rdServer.obj
 0001:00028460       ??0iterator@?$list@FV?$allocator@F@std@@@std@@QAE@PAU_Node@12@@Z 00429460 f i rdServer.obj
 0001:00028490       ??Eiterator@?$list@FV?$allocator@F@std@@@std@@QAEAAV012@XZ 00429490 f i rdServer.obj
 0001:000284c0       ??8iterator@?$list@FV?$allocator@F@std@@@std@@QBE_NABV012@@Z 004294c0 f i rdServer.obj
 0001:000284f0       ?insert@?$list@PAUHWND__@@V?$allocator@PAUHWND__@@@std@@@std@@QAE?AViterator@12@V312@ABQAUHWND__@@@Z 004294f0 f i rdServer.obj
 0001:000285b0       ?erase@?$list@PAUHWND__@@V?$allocator@PAUHWND__@@@std@@@std@@QAE?AViterator@12@V312@0@Z 004295b0 f i rdServer.obj
 0001:00028610       ?_Buynode@?$list@PAUHWND__@@V?$allocator@PAUHWND__@@@std@@@std@@IAEPAU_Node@12@PAU312@0@Z 00429610 f i rdServer.obj
 0001:00028680       ?_Freenode@?$list@PAUHWND__@@V?$allocator@PAUHWND__@@@std@@@std@@IAEXPAU_Node@12@@Z 00429680 f i rdServer.obj
 0001:000286b0       ?_Next@_Acc@?$list@PAUHWND__@@V?$allocator@PAUHWND__@@@std@@@std@@SAAAPAU_Node@23@PAU423@@Z 004296b0 f i rdServer.obj
 0001:000286d0       ?_Prev@_Acc@?$list@PAUHWND__@@V?$allocator@PAUHWND__@@@std@@@std@@SAAAPAU_Node@23@PAU423@@Z 004296d0 f i rdServer.obj
 0001:000286f0       ?_Value@_Acc@?$list@PAUHWND__@@V?$allocator@PAUHWND__@@@std@@@std@@SAAAPAUHWND__@@PAU_Node@23@@Z 004296f0 f i rdServer.obj
 0001:00028710       ?destroy@?$allocator@PAUHWND__@@@std@@QAEXPAPAUHWND__@@@Z 00429710 f i rdServer.obj
 0001:00028740       ??0const_iterator@?$list@PAUHWND__@@V?$allocator@PAUHWND__@@@std@@@std@@QAE@XZ 00429740 f i rdServer.obj
 0001:00028760       ?_Mynode@const_iterator@?$list@PAUHWND__@@V?$allocator@PAUHWND__@@@std@@@std@@QBEPAU_Node@23@XZ 00429760 f i rdServer.obj
 0001:00028780       ??0iterator@?$list@PAUHWND__@@V?$allocator@PAUHWND__@@@std@@@std@@QAE@PAU_Node@12@@Z 00429780 f i rdServer.obj
 0001:000287b0       ??Eiterator@?$list@PAUHWND__@@V?$allocator@PAUHWND__@@@std@@@std@@QAEAAV012@XZ 004297b0 f i rdServer.obj
 0001:000287e0       ??8iterator@?$list@PAUHWND__@@V?$allocator@PAUHWND__@@@std@@@std@@QBE_NABV012@@Z 004297e0 f i rdServer.obj
 0001:00028810       ?_Charalloc@?$allocator@F@std@@QAEPADI@Z 00429810 f i rdServer.obj
 0001:00028840       ?deallocate@?$allocator@F@std@@QAEXPAXI@Z 00429840 f i rdServer.obj
 0001:00028870       ?construct@?$allocator@F@std@@QAEXPAFABF@Z 00429870 f i rdServer.obj
 0001:000288a0       ??0const_iterator@?$list@FV?$allocator@F@std@@@std@@QAE@PAU_Node@12@@Z 004298a0 f i rdServer.obj
 0001:000288c0       ??8const_iterator@?$list@FV?$allocator@F@std@@@std@@QBE_NABV012@@Z 004298c0 f i rdServer.obj
 0001:000288f0       ?_Charalloc@?$allocator@PAUHWND__@@@std@@QAEPADI@Z 004298f0 f i rdServer.obj
 0001:00028920       ?deallocate@?$allocator@PAUHWND__@@@std@@QAEXPAXI@Z 00429920 f i rdServer.obj
 0001:00028950       ?construct@?$allocator@PAUHWND__@@@std@@QAEXPAPAUHWND__@@ABQAU3@@Z 00429950 f i rdServer.obj
 0001:00028980       ??0const_iterator@?$list@PAUHWND__@@V?$allocator@PAUHWND__@@@std@@@std@@QAE@PAU_Node@12@@Z 00429980 f i rdServer.obj
 0001:000289a0       ?_Destroy@std@@YAXPAF@Z    004299a0 f i rdServer.obj
 0001:000289b0       ?_Destroy@std@@YAXPAPAUHWND__@@@Z 004299b0 f i rdServer.obj
 0001:000289c0       ?_Construct@std@@YAXPAFABF@Z 004299c0 f i rdServer.obj
 0001:00028a10       ?_Construct@std@@YAXPAPAUHWND__@@ABQAU2@@Z 00429a10 f i rdServer.obj
 0001:00028a90       ??0rdService@@QAE@XZ       00429a90 f   rdService.obj
 0001:00028b00       ?GetCurrentUser@rdService@@SAHPADI@Z 00429b00 f   rdService.obj
 0001:00028c80       ?CurrentUser@rdService@@SAHPADI@Z 00429c80 f   rdService.obj
 0001:00028ce0       ?IsWin95@rdService@@SAHXZ  00429ce0 f   rdService.obj
 0001:00028d00       ?IsWinNT@rdService@@SAHXZ  00429d00 f   rdService.obj
 0001:00028d20       ?VersionMajor@rdService@@SAKXZ 00429d20 f   rdService.obj
 0001:00028d40       ?VersionMinor@rdService@@SAKXZ 00429d40 f   rdService.obj
 0001:00028d60       ?PostToWinrd@@YAHIIJ@Z     00429d60 f   rdService.obj
 0001:00028db0       ?SelectHDESK@rdService@@SAHPAUHDESK__@@@Z 00429db0 f   rdService.obj
 0001:00028eb0       ?SelectDesktop@rdService@@SAHPAD@Z 00429eb0 f   rdService.obj
 0001:00028f90       ?InputDesktopSelected@rdService@@SAHXZ 00429f90 f   rdService.obj
 0001:00029120       ?SimulateCtrlAltDelThreadFn@@YAPAXPAX@Z 0042a120 f   rdService.obj
 0001:000291b0       ?SimulateCtrlAltDel@rdService@@SAHXZ 0042a1b0 f   rdService.obj
 0001:00029230       ?LockWorkstation@rdService@@SAHXZ 0042a230 f   rdService.obj
 0001:00029330       ?ShowProperties@rdService@@SAHXZ 0042a330 f   rdService.obj
 0001:000293c0       ?ShowDefaultProperties@rdService@@SAHXZ 0042a3c0 f   rdService.obj
 0001:00029410       ?ShowAboutBox@rdService@@SAHXZ 0042a410 f   rdService.obj
 0001:00029460       ?PostAddNewClient@rdService@@SAHKG@Z 0042a460 f   rdService.obj
 0001:000294b0       ?RunningAsService@rdService@@SAHXZ 0042a4b0 f   rdService.obj
 0001:000294d0       ?KillRunningCopy@rdService@@SAHXZ 0042a4d0 f   rdService.obj
 0001:00029520       ?PostUserHelperMessage@rdService@@SAHXZ 0042a520 f   rdService.obj
 0001:000295a0       ?PostReloadMessage@rdService@@SAHXZ 0042a5a0 f   rdService.obj
 0001:00029620       ?ProcessUserHelperMessage@rdService@@SAHIJ@Z 0042a620 f   rdService.obj
 0001:00029780       ?WinrdServiceMain@rdService@@SAHXZ 0042a780 f   rdService.obj
 0001:00029850       ?ServiceMain@@YGXKPAPAD@Z  0042a850 f   rdService.obj
 0001:000298e0       ?ServiceWorkThread@@YAXPAX@Z 0042a8e0 f   rdService.obj
 0001:00029930       ?ServiceStop@@YAXXZ        0042a930 f   rdService.obj
 0001:00029970       ?ReinstallService@rdService@@SAHXZ 0042a970 f   rdService.obj
 0001:000299a0       ?InstallService@rdService@@SAHH@Z 0042a9a0 f   rdService.obj
 0001:00029de0       ?RemoveService@rdService@@SAHH@Z 0042ade0 f   rdService.obj
 0001:0002a090       ?ServiceCtrl@@YGXK@Z       0042b090 f   rdService.obj
 0001:0002a0e0       ?ReportStatus@@YAHKKK@Z    0042b0e0 f   rdService.obj
 0001:0002a190       ?LogErrorMsg@@YAXPAD@Z     0042b190 f   rdService.obj
 0001:0002a240       ?Init@rdSockConnectThread@@UAEHPAVVSocket@@PAVrdServer@@@Z 0042b240 f   rdSockConnect.obj
 0001:0002a280       ?run_undetached@rdSockConnectThread@@UAEPAXPAX@Z 0042b280 f   rdSockConnect.obj
 0001:0002a320       ??0rdSockConnect@@QAE@XZ   0042b320 f   rdSockConnect.obj
 0001:0002a360       ??1rdSockConnect@@QAE@XZ   0042b360 f   rdSockConnect.obj
 0001:0002a450       ?Init@rdSockConnect@@UAEHPAVrdServer@@I@Z 0042b450 f   rdSockConnect.obj
 0001:0002a560       ??0rdSockConnectThread@@QAE@XZ 0042b560 f i rdSockConnect.obj
 0001:0002a590       ??_GrdSockConnectThread@@UAEPAXI@Z 0042b590 f i rdSockConnect.obj
 0001:0002a590       ??_ErdSockConnectThread@@UAEPAXI@Z 0042b590 f i rdSockConnect.obj
 0001:0002a5d0       ??1rdSockConnectThread@@UAE@XZ 0042b5d0 f i rdSockConnect.obj
 0001:0002a630       ?Do@rdTimedMsgBox@@SAXPBD0I@Z 0042b630 f   rdTimedMsgBox.obj
 0001:0002a6d0       ??0rdTimedMsgBoxThread@@QAE@PBD0I@Z 0042b6d0 f i rdTimedMsgBox.obj
 0001:0002a730       ?run@rdTimedMsgBoxThread@@UAEXPAX@Z 0042b730 f i rdTimedMsgBox.obj
 0001:0002a770       ??_ErdTimedMsgBoxThread@@UAEPAXI@Z 0042b770 f i rdTimedMsgBox.obj
 0001:0002a770       ??_GrdTimedMsgBoxThread@@UAEPAXI@Z 0042b770 f i rdTimedMsgBox.obj
 0001:0002a7b0       ??1rdTimedMsgBoxThread@@UAE@XZ 0042b7b0 f i rdTimedMsgBox.obj
 0001:0002a850       ??M@YA_NUtagRECT@@0@Z      0042b850 f   RectList.obj
 0001:0002a870       ??O@YA_NUtagRECT@@0@Z      0042b870 f   RectList.obj
 0001:0002a890       ??8@YA_NABUtagRECT@@0@Z    0042b890 f   RectList.obj
 0001:0002a8f0       ??9@YA_NABUtagRECT@@0@Z    0042b8f0 f   RectList.obj
 0001:0002cbf0       ?rfbTranslateNone@@YAXPADPAU_rfbPixelFormat@@100HHH@Z 0042dbf0 f   translate.obj
 0001:0002cca0       ??0VSocketSystem@@QAE@XZ   0042dca0 f   VSocket.obj
 0001:0002cd00       ??1VSocketSystem@@QAE@XZ   0042dd00 f   VSocket.obj
 0001:0002cd30       ??0VSocket@@QAE@XZ         0042dd30 f   VSocket.obj
 0001:0002cd70       ??_GVSocket@@UAEPAXI@Z     0042dd70 f i VSocket.obj
 0001:0002cd70       ??_EVSocket@@UAEPAXI@Z     0042dd70 f i VSocket.obj
 0001:0002cdb0       ??1VSocket@@UAE@XZ         0042ddb0 f   VSocket.obj
 0001:0002ce10       ?Create@VSocket@@QAEHXZ    0042de10 f   VSocket.obj
 0001:0002cea0       ?Close@VSocket@@QAEHXZ     0042dea0 f   VSocket.obj
 0001:0002cf50       ??_GAIOBlock@@QAEPAXI@Z    0042df50 f i VSocket.obj
 0001:0002cf90       ??1AIOBlock@@QAE@XZ        0042df90 f i VSocket.obj
 0001:0002cfd0       ?Shutdown@VSocket@@QAEHXZ  0042dfd0 f   VSocket.obj
 0001:0002d060       ?Bind@VSocket@@QAEHIHH@Z   0042e060 f   VSocket.obj
 0001:0002d170       ?Connect@VSocket@@QAEHQADI@Z 0042e170 f   VSocket.obj
 0001:0002d250       ?Listen@VSocket@@QAEHXZ    0042e250 f   VSocket.obj
 0001:0002d290       ?Accept@VSocket@@QAEPAV1@XZ 0042e290 f   VSocket.obj
 0001:0002d3e0       ?GetPeerName@VSocket@@QAEPADXZ 0042e3e0 f   VSocket.obj
 0001:0002d440       ?GetSockName@VSocket@@QAEPADXZ 0042e440 f   VSocket.obj
 0001:0002d4a0       ?Resolve@VSocket@@SAIQAD@Z 0042e4a0 f   VSocket.obj
 0001:0002d500       ?SetTimeout@VSocket@@QAEHI@Z 0042e500 f   VSocket.obj
 0001:0002d580       ?Send@VSocket@@QAEHPBDI@Z  0042e580 f   VSocket.obj
 0001:0002d5e0       ?SendExact@VSocket@@QAEHPBDI@Z 0042e5e0 f   VSocket.obj
 0001:0002d750       ?SendQueued@VSocket@@QAEHPBDI@Z 0042e750 f   VSocket.obj
 0001:0002d880       ??0AIOBlock@@QAE@HPBD@Z    0042e880 f i VSocket.obj
 0001:0002d8f0       ?SendFromQueue@VSocket@@IAEHXZ 0042e8f0 f   VSocket.obj
 0001:0002da70       ?Read@VSocket@@QAEHPADI@Z  0042ea70 f   VSocket.obj
 0001:0002dad0       ?ReadExact@VSocket@@QAEHPADI@Z 0042ead0 f   VSocket.obj
 0001:0002dda0       _WinMain@16                0042eda0 f   Winrd.obj
 0001:0002e3b0       ?Initialised@VSocketSystem@@QAEHXZ 0042f3b0 f i Winrd.obj
 0001:0002e3d0       ?WinrdAppMain@@YAHXZ       0042f3d0 f   Winrd.obj
 0001:0002e5d0       ??_GrdMenu@@QAEPAXI@Z      0042f5d0 f i Winrd.obj
 0001:0002e606       _gethostbyname@4           0042f606 f   wsock32:WSOCK32.dll
 0001:0002e60c       _gethostname@8             0042f60c f   wsock32:WSOCK32.dll
 0001:0002e612       _inet_ntoa@4               0042f612 f   wsock32:WSOCK32.dll
 0001:0002e618       _WSAStartup@8              0042f618 f   wsock32:WSOCK32.dll
 0001:0002e61e       _WSACleanup@0              0042f61e f   wsock32:WSOCK32.dll
 0001:0002e624       _setsockopt@20             0042f624 f   wsock32:WSOCK32.dll
 0001:0002e62a       _socket@12                 0042f62a f   wsock32:WSOCK32.dll
 0001:0002e630       _closesocket@4             0042f630 f   wsock32:WSOCK32.dll
 0001:0002e636       _shutdown@8                0042f636 f   wsock32:WSOCK32.dll
 0001:0002e63c       _bind@12                   0042f63c f   wsock32:WSOCK32.dll
 0001:0002e642       _htonl@4                   0042f642 f   wsock32:WSOCK32.dll
 0001:0002e648       _htons@4                   0042f648 f   wsock32:WSOCK32.dll
 0001:0002e64e       _ioctlsocket@12            0042f64e f   wsock32:WSOCK32.dll
 0001:0002e654       _connect@12                0042f654 f   wsock32:WSOCK32.dll
 0001:0002e65a       _inet_addr@4               0042f65a f   wsock32:WSOCK32.dll
 0001:0002e660       _listen@8                  0042f660 f   wsock32:WSOCK32.dll
 0001:0002e666       _accept@12                 0042f666 f   wsock32:WSOCK32.dll
 0001:0002e66c       _getpeername@12            0042f66c f   wsock32:WSOCK32.dll
 0001:0002e672       _getsockname@12            0042f672 f   wsock32:WSOCK32.dll
 0001:0002e678       _WSAGetLastError@0         0042f678 f   wsock32:WSOCK32.dll
 0001:0002e67e       _send@16                   0042f67e f   wsock32:WSOCK32.dll
 0001:0002e684       ___WSAFDIsSet@8            0042f684 f   wsock32:WSOCK32.dll
 0001:0002e68a       _select@20                 0042f68a f   wsock32:WSOCK32.dll
 0001:0002e690       _recv@16                   0042f690 f   wsock32:WSOCK32.dll
 0001:0002e696       _AllocConsole@0            0042f696 f   kernel32:KERNEL32.dll
 0001:0002e69c       _SetEndOfFile@4            0042f69c f   kernel32:KERNEL32.dll
 0001:0002e6a2       _SetFilePointer@16         0042f6a2 f   kernel32:KERNEL32.dll
 0001:0002e6a8       _CreateFileA@28            0042f6a8 f   kernel32:KERNEL32.dll
 0001:0002e6ae       _MoveFileA@8               0042f6ae f   kernel32:KERNEL32.dll
 0001:0002e6b4       _DeleteFileA@4             0042f6b4 f   kernel32:KERNEL32.dll
 0001:0002e6ba       _CloseHandle@4             0042f6ba f   kernel32:KERNEL32.dll
 0001:0002e6c0       _WriteFile@20              0042f6c0 f   kernel32:KERNEL32.dll
 0001:0002e6c6       _WriteConsoleA@20          0042f6c6 f   kernel32:KERNEL32.dll
 0001:0002e6cc       _GetStdHandle@4            0042f6cc f   kernel32:KERNEL32.dll
 0001:0002e6d2       _OutputDebugStringA@4      0042f6d2 f   kernel32:KERNEL32.dll
 0001:0002e6d8       _GetCurrentProcessId@0     0042f6d8 f   kernel32:KERNEL32.dll
 0001:0002e6de       _GetComputerNameA@8        0042f6de f   kernel32:KERNEL32.dll
 0001:0002e6e4       _GetLastError@0            0042f6e4 f   kernel32:KERNEL32.dll
 0001:0002e6ea       _GetCurrentThreadId@0      0042f6ea f   kernel32:KERNEL32.dll
 0001:0002e6f0       _GlobalAddAtomA@4          0042f6f0 f   kernel32:KERNEL32.dll
 0001:0002e6f6       _GlobalDeleteAtom@4        0042f6f6 f   kernel32:KERNEL32.dll
 0001:0002e6fc       _GetVersionExA@4           0042f6fc f   kernel32:KERNEL32.dll
 0001:0002e702       _GlobalUnlock@4            0042f702 f   kernel32:KERNEL32.dll
 0001:0002e708       _GlobalLock@4              0042f708 f   kernel32:KERNEL32.dll
 0001:0002e70e       _GlobalAlloc@8             0042f70e f   kernel32:KERNEL32.dll
 0001:0002e714       _LockResource@4            0042f714 f   kernel32:KERNEL32.dll
 0001:0002e71a       _LoadResource@8            0042f71a f   kernel32:KERNEL32.dll
 0001:0002e720       _SizeofResource@8          0042f720 f   kernel32:KERNEL32.dll
 0001:0002e726       _FindResourceA@12          0042f726 f   kernel32:KERNEL32.dll
 0001:0002e72c       _CreateMutexA@12           0042f72c f   kernel32:KERNEL32.dll
 0001:0002e732       _SystemTimeToFileTime@8    0042f732 f   kernel32:KERNEL32.dll
 0001:0002e738       _GetSystemTime@4           0042f738 f   kernel32:KERNEL32.dll
 0001:0002e73e       _FreeLibrary@4             0042f73e f   kernel32:KERNEL32.dll
 0001:0002e744       _GetProcAddress@8          0042f744 f   kernel32:KERNEL32.dll
 0001:0002e74a       _LoadLibraryA@4            0042f74a f   kernel32:KERNEL32.dll
 0001:0002e750       _OpenProcess@12            0042f750 f   kernel32:KERNEL32.dll
 0001:0002e756       _CreateProcessA@40         0042f756 f   kernel32:KERNEL32.dll
 0001:0002e75c       _GetModuleFileNameA@12     0042f75c f   kernel32:KERNEL32.dll
 0001:0002e762       _Sleep@4                   0042f762 f   kernel32:KERNEL32.dll
 0001:0002e768       _SetProcessShutdownParameters@8 0042f768 f   kernel32:KERNEL32.dll
 0001:0002e76e       _DialogBoxParamA@20        0042f76e f   user32:USER32.dll
 0001:0002e774       _EndDialog@8               0042f774 f   user32:USER32.dll
 0001:0002e77a       _SetForegroundWindow@4     0042f77a f   user32:USER32.dll
 0001:0002e780       _SetWindowLongA@12         0042f780 f   user32:USER32.dll
 0001:0002e786       _GetWindowLongA@8          0042f786 f   user32:USER32.dll
 0001:0002e78c       _FlashWindow@8             0042f78c f   user32:USER32.dll
 0001:0002e792       _MessageBeep@4             0042f792 f   user32:USER32.dll
 0001:0002e798       _SetActiveWindow@4         0042f798 f   user32:USER32.dll
 0001:0002e79e       _GetWindowThreadProcessId@8 0042f79e f   user32:USER32.dll
 0001:0002e7a4       _GetForegroundWindow@0     0042f7a4 f   user32:USER32.dll
 0001:0002e7aa       _SetTimer@16               0042f7aa f   user32:USER32.dll
 0001:0002e7b0       _SetDlgItemTextA@12        0042f7b0 f   user32:USER32.dll
 0001:0002e7b6       _EnableWindow@8            0042f7b6 f   user32:USER32.dll
 0001:0002e7bc       _GetDlgItem@8              0042f7bc f   user32:USER32.dll
 0001:0002e7c2       _PostQuitMessage@4         0042f7c2 f   user32:USER32.dll
 0001:0002e7c8       _MessageBoxA@16            0042f7c8 f   user32:USER32.dll
 0001:0002e7ce       _IsDlgButtonChecked@8      0042f7ce f   user32:USER32.dll
 0001:0002e7d4       _GetDlgItemTextA@16        0042f7d4 f   user32:USER32.dll
 0001:0002e7da       _CheckDlgButton@12         0042f7da f   user32:USER32.dll
 0001:0002e7e0       _SendDlgItemMessageA@20    0042f7e0 f   user32:USER32.dll
 0001:0002e7e6       _SendMessageA@16           0042f7e6 f   user32:USER32.dll
 0001:0002e7ec       _SetWindowTextA@8          0042f7ec f   user32:USER32.dll
 0001:0002e7f2       _keybd_event@16            0042f7f2 f   user32:USER32.dll
 0001:0002e7f8       _GetKeyboardState@4        0042f7f8 f   user32:USER32.dll
 0001:0002e7fe       _mouse_event@20            0042f7fe f   user32:USER32.dll
 0001:0002e804       _GetSystemMetrics@4        0042f804 f   user32:USER32.dll
 0001:0002e80a       _IntersectRect@12          0042f80a f   user32:USER32.dll
 0001:0002e810       _GetThreadDesktop@4        0042f810 f   user32:USER32.dll
 0001:0002e816       _GetWindowRect@8           0042f816 f   user32:USER32.dll
 0001:0002e81c       _GetClassNameA@12          0042f81c f   user32:USER32.dll
 0001:0002e822       _WindowFromPoint@8         0042f822 f   user32:USER32.dll
 0001:0002e828       _GetCursorPos@4            0042f828 f   user32:USER32.dll
 0001:0002e82e       _IsRectEmpty@4             0042f82e f   user32:USER32.dll
 0001:0002e834       _UnionRect@12              0042f834 f   user32:USER32.dll
 0001:0002e83a       _SetRectEmpty@4            0042f83a f   user32:USER32.dll
 0001:0002e840       _RegisterWindowMessageA@4  0042f840 f   user32:USER32.dll
 0001:0002e846       _DispatchMessageA@4        0042f846 f   user32:USER32.dll
 0001:0002e84c       _GetMessageA@16            0042f84c f   user32:USER32.dll
 0001:0002e852       _PeekMessageA@20           0042f852 f   user32:USER32.dll
 0001:0002e858       _PostMessageA@16           0042f858 f   user32:USER32.dll
 0001:0002e85e       _ReleaseDC@8               0042f85e f   user32:USER32.dll
 0001:0002e864       _DestroyWindow@4           0042f864 f   user32:USER32.dll
 0001:0002e86a       _ChangeClipboardChain@8    0042f86a f   user32:USER32.dll
 0001:0002e870       _KillTimer@8               0042f870 f   user32:USER32.dll
 0001:0002e876       _SystemParametersInfoA@16  0042f876 f   user32:USER32.dll
 0001:0002e87c       _CloseDesktop@4            0042f87c f   user32:USER32.dll
 0001:0002e882       _EnumDesktopWindows@12     0042f882 f   user32:USER32.dll
 0001:0002e888       _OpenDesktopA@16           0042f888 f   user32:USER32.dll
 0001:0002e88e       _FindWindowA@8             0042f88e f   user32:USER32.dll
 0001:0002e894       _ChangeDisplaySettingsA@8  0042f894 f   user32:USER32.dll
 0001:0002e89a       _EnumDisplaySettingsA@12   0042f89a f   user32:USER32.dll
 0001:0002e8a0       _GetDC@4                   0042f8a0 f   user32:USER32.dll
 0001:0002e8a6       _SetClipboardViewer@4      0042f8a6 f   user32:USER32.dll
 0001:0002e8ac       _CreateWindowExA@48        0042f8ac f   user32:USER32.dll
 0001:0002e8b2       _RegisterClassExA@4        0042f8b2 f   user32:USER32.dll
 0001:0002e8b8       _LoadCursorA@8             0042f8b8 f   user32:USER32.dll
 0001:0002e8be       _DrawIconEx@36             0042f8be f   user32:USER32.dll
 0001:0002e8c4       _GetIconInfo@8             0042f8c4 f   user32:USER32.dll
 0001:0002e8ca       _CloseClipboard@0          0042f8ca f   user32:USER32.dll
 0001:0002e8d0       _SetClipboardData@8        0042f8d0 f   user32:USER32.dll
 0001:0002e8d6       _EmptyClipboard@0          0042f8d6 f   user32:USER32.dll
 0001:0002e8dc       _OpenClipboard@4           0042f8dc f   user32:USER32.dll
 0001:0002e8e2       _RemovePropA@8             0042f8e2 f   user32:USER32.dll
 0001:0002e8e8       _SetPropA@12               0042f8e8 f   user32:USER32.dll
 0001:0002e8ee       _IsWindowVisible@4         0042f8ee f   user32:USER32.dll
 0001:0002e8f4       _GetPropA@8                0042f8f4 f   user32:USER32.dll
 0001:0002e8fa       _EnumWindows@8             0042f8fa f   user32:USER32.dll
 0001:0002e900       _DefWindowProcA@16         0042f900 f   user32:USER32.dll
 0001:0002e906       _GetClipboardData@4        0042f906 f   user32:USER32.dll
 0001:0002e90c       _GetClipboardOwner@0       0042f90c f   user32:USER32.dll
 0001:0002e912       _SetRect@20                0042f912 f   user32:USER32.dll
 0001:0002e918       _GetAsyncKeyState@4        0042f918 f   user32:USER32.dll
 0001:0002e91e       _VkKeyScanA@4              0042f91e f   user32:USER32.dll
 0001:0002e924       _MapVirtualKeyA@8          0042f924 f   user32:USER32.dll
 0001:0002e92a       _LoadMenuA@8               0042f92a f   user32:USER32.dll
 0001:0002e930       _LoadIconA@8               0042f930 f   user32:USER32.dll
 0001:0002e936       _DestroyMenu@4             0042f936 f   user32:USER32.dll
 0001:0002e93c       _EnableMenuItem@12         0042f93c f   user32:USER32.dll
 0001:0002e942       _LoadStringA@16            0042f942 f   user32:USER32.dll
 0001:0002e948       _GetMenuItemID@8           0042f948 f   user32:USER32.dll
 0001:0002e94e       _TrackPopupMenu@28         0042f94e f   user32:USER32.dll
 0001:0002e954       _SetMenuDefaultItem@12     0042f954 f   user32:USER32.dll
 0001:0002e95a       _GetSubMenu@8              0042f95a f   user32:USER32.dll
 0001:0002e960       _CheckMenuItem@12          0042f960 f   user32:USER32.dll
 0001:0002e966       _GetMenuState@12           0042f966 f   user32:USER32.dll
 0001:0002e96c       _SetDlgItemInt@16          0042f96c f   user32:USER32.dll
 0001:0002e972       _GetDlgItemInt@16          0042f972 f   user32:USER32.dll
 0001:0002e978       _SetFocus@4                0042f978 f   user32:USER32.dll
 0001:0002e97e       _ExitWindowsEx@8           0042f97e f   user32:USER32.dll
 0001:0002e984       _GetUserObjectInformationA@20 0042f984 f   user32:USER32.dll
 0001:0002e98a       _GetProcessWindowStation@0 0042f98a f   user32:USER32.dll
 0001:0002e990       _SetThreadDesktop@4        0042f990 f   user32:USER32.dll
 0001:0002e996       _OpenInputDesktop@12       0042f996 f   user32:USER32.dll
 0001:0002e99c       _PostThreadMessageA@16     0042f99c f   user32:USER32.dll
 0001:0002e9a2       _TranslateMessage@4        0042f9a2 f   user32:USER32.dll
 0001:0002e9a8       _DeleteObject@4            0042f9a8 f   gdi32:GDI32.dll
 0001:0002e9ae       _DeleteDC@4                0042f9ae f   gdi32:GDI32.dll
 0001:0002e9b4       _GetDIBits@28              0042f9b4 f   gdi32:GDI32.dll
 0001:0002e9ba       _CreateCompatibleBitmap@12 0042f9ba f   gdi32:GDI32.dll
 0001:0002e9c0       _CreateCompatibleDC@4      0042f9c0 f   gdi32:GDI32.dll
 0001:0002e9c6       _GetDeviceCaps@8           0042f9c6 f   gdi32:GDI32.dll
 0001:0002e9cc       _RealizePalette@4          0042f9cc f   gdi32:GDI32.dll
 0001:0002e9d2       _SelectPalette@12          0042f9d2 f   gdi32:GDI32.dll
 0001:0002e9d8       _CreatePalette@4           0042f9d8 f   gdi32:GDI32.dll
 0001:0002e9de       _GetSystemPaletteEntries@16 0042f9de f   gdi32:GDI32.dll
 0001:0002e9e4       _GetStockObject@4          0042f9e4 f   gdi32:GDI32.dll
 0001:0002e9ea       _CreateDIBSection@24       0042f9ea f   gdi32:GDI32.dll
 0001:0002e9f0       _BitBlt@36                 0042f9f0 f   gdi32:GDI32.dll
 0001:0002e9f6       _SelectObject@8            0042f9f6 f   gdi32:GDI32.dll
 0001:0002e9fc       _GdiFlush@0                0042f9fc f   gdi32:GDI32.dll
 0001:0002ea02       _GetBitmapBits@12          0042fa02 f   gdi32:GDI32.dll
 0001:0002ea08       _GetObjectA@12             0042fa08 f   gdi32:GDI32.dll
 0001:0002ea0e       _CombineRgn@16             0042fa0e f   gdi32:GDI32.dll
 0001:0002ea14       _CreateRectRgnIndirect@4   0042fa14 f   gdi32:GDI32.dll
 0001:0002ea1a       _CreateRectRgn@16          0042fa1a f   gdi32:GDI32.dll
 0001:0002ea20       _GetRegionData@12          0042fa20 f   gdi32:GDI32.dll
 0001:0002ea26       _RegCloseKey@4             0042fa26 f   advapi32:ADVAPI32.dll
 0001:0002ea2c       _RegCreateKeyExA@36        0042fa2c f   advapi32:ADVAPI32.dll
 0001:0002ea32       _RegQueryValueExA@24       0042fa32 f   advapi32:ADVAPI32.dll
 0001:0002ea38       _RegOpenKeyExA@20          0042fa38 f   advapi32:ADVAPI32.dll
 0001:0002ea3e       _RegSetValueExA@24         0042fa3e f   advapi32:ADVAPI32.dll
 0001:0002ea44       _GetUserNameA@8            0042fa44 f   advapi32:ADVAPI32.dll
 0001:0002ea4a       _RevertToSelf@0            0042fa4a f   advapi32:ADVAPI32.dll
 0001:0002ea50       _ImpersonateLoggedOnUser@4 0042fa50 f   advapi32:ADVAPI32.dll
 0001:0002ea56       _OpenProcessToken@12       0042fa56 f   advapi32:ADVAPI32.dll
 0001:0002ea5c       _StartServiceCtrlDispatcherA@4 0042fa5c f   advapi32:ADVAPI32.dll
 0001:0002ea62       _RegisterServiceCtrlHandlerA@8 0042fa62 f   advapi32:ADVAPI32.dll
 0001:0002ea68       _CloseServiceHandle@4      0042fa68 f   advapi32:ADVAPI32.dll
 0001:0002ea6e       _CreateServiceA@52         0042fa6e f   advapi32:ADVAPI32.dll
 0001:0002ea74       _OpenSCManagerA@12         0042fa74 f   advapi32:ADVAPI32.dll
 0001:0002ea7a       _RegCreateKeyA@12          0042fa7a f   advapi32:ADVAPI32.dll
 0001:0002ea80       _DeleteService@4           0042fa80 f   advapi32:ADVAPI32.dll
 0001:0002ea86       _QueryServiceStatus@8      0042fa86 f   advapi32:ADVAPI32.dll
 0001:0002ea8c       _ControlService@12         0042fa8c f   advapi32:ADVAPI32.dll
 0001:0002ea92       _OpenServiceA@12           0042fa92 f   advapi32:ADVAPI32.dll
 0001:0002ea98       _RegDeleteValueA@8         0042fa98 f   advapi32:ADVAPI32.dll
 0001:0002ea9e       _RegOpenKeyA@12            0042fa9e f   advapi32:ADVAPI32.dll
 0001:0002eaa4       _SetServiceStatus@8        0042faa4 f   advapi32:ADVAPI32.dll
 0001:0002eaaa       _DeregisterEventSource@4   0042faaa f   advapi32:ADVAPI32.dll
 0001:0002eab0       _ReportEventA@36           0042fab0 f   advapi32:ADVAPI32.dll
 0001:0002eab6       _RegisterEventSourceA@8    0042fab6 f   advapi32:ADVAPI32.dll
 0001:0002eabc       _Shell_NotifyIconA@8       0042fabc f   shell32:SHELL32.dll
 0001:0002eac2       _CoInitialize@4            0042fac2 f   ole32:ole32.dll
 0001:0002eac8       _CoCreateInstance@20       0042fac8 f   ole32:ole32.dll
 0001:0002eace       _SetMouseFilterHook        0042face f   rdHooks:rdHooks.dll
 0001:0002ead4       _SetKeyboardFilterHook     0042fad4 f   rdHooks:rdHooks.dll
 0001:0002eada       _SetHook                   0042fada f   rdHooks:rdHooks.dll
 0001:0002eae0       _UnSetHook                 0042fae0 f   rdHooks:rdHooks.dll
 0001:0002eae6       ??0init_t@omni_thread@@QAE@XZ 0042fae6 f   omnithread_rtd:omnithread_rtd.dll
 0001:0002eaec       ?run_undetached@omni_thread@@EAEPAXPAX@Z 0042faec f   omnithread_rtd:omnithread_rtd.dll
 0001:0002eaf2       ??1omni_thread@@MAE@XZ     0042faf2 f   omnithread_rtd:omnithread_rtd.dll
 0001:0002eaf8       ?start@omni_thread@@QAEXXZ 0042faf8 f   omnithread_rtd:omnithread_rtd.dll
 0001:0002eafe       ??1omni_mutex_lock@@QAE@XZ 0042fafe f   omnithread_rtd:omnithread_rtd.dll
 0001:0002eb04       ??0omni_mutex_lock@@QAE@AAVomni_mutex@@@Z 0042fb04 f   omnithread_rtd:omnithread_rtd.dll
 0001:0002eb0a       ??1omni_mutex@@QAE@XZ      0042fb0a f   omnithread_rtd:omnithread_rtd.dll
 0001:0002eb10       ??0omni_mutex@@QAE@XZ      0042fb10 f   omnithread_rtd:omnithread_rtd.dll
 0001:0002eb16       ??0omni_thread@@IAE@PAXW4priority_t@0@@Z 0042fb16 f   omnithread_rtd:omnithread_rtd.dll
 0001:0002eb1c       ?wait@omni_condition@@QAEXXZ 0042fb1c f   omnithread_rtd:omnithread_rtd.dll
 0001:0002eb22       ?start_undetached@omni_thread@@IAEXXZ 0042fb22 f   omnithread_rtd:omnithread_rtd.dll
 0001:0002eb28       ??0omni_condition@@QAE@PAVomni_mutex@@@Z 0042fb28 f   omnithread_rtd:omnithread_rtd.dll
 0001:0002eb2e       ?signal@omni_condition@@QAEXXZ 0042fb2e f   omnithread_rtd:omnithread_rtd.dll
 0001:0002eb34       ?set_priority@omni_thread@@QAEXW4priority_t@1@@Z 0042fb34 f   omnithread_rtd:omnithread_rtd.dll
 0001:0002eb3a       ?join@omni_thread@@QAEXPAPAX@Z 0042fb3a f   omnithread_rtd:omnithread_rtd.dll
 0001:0002eb40       ?run@omni_thread@@EAEXPAX@Z 0042fb40 f   omnithread_rtd:omnithread_rtd.dll
 0001:0002eb46       ??1omni_condition@@QAE@XZ  0042fb46 f   omnithread_rtd:omnithread_rtd.dll
 0001:0002eb4c       ?self@omni_thread@@SAPAV1@XZ 0042fb4c f   omnithread_rtd:omnithread_rtd.dll
 0001:0002eb52       ?sleep@omni_thread@@SAXKK@Z 0042fb52 f   omnithread_rtd:omnithread_rtd.dll
 0001:0002eb58       ?create@omni_thread@@SAPAV1@P6APAXPAX@Z0W4priority_t@1@@Z 0042fb58 f   omnithread_rtd:omnithread_rtd.dll
 0001:0002eb5e       ?create@omni_thread@@SAPAV1@P6AXPAX@Z0W4priority_t@1@@Z 0042fb5e f   omnithread_rtd:omnithread_rtd.dll
 0001:0002eb64       _deflateEnd@4              0042fb64 f   zlib:zlib.dll
 0001:0002eb6a       _deflate@8                 0042fb6a f   zlib:zlib.dll
 0001:0002eb70       _deflateParams@12          0042fb70 f   zlib:zlib.dll
 0001:0002eb76       _deflateInit2_@32          0042fb76 f   zlib:zlib.dll
 0001:0002eb80       _jpeg_CreateCompress       0042fb80 f   libjpeg:jcapimin.obj
 0001:0002ed30       _jpeg_destroy_compress     0042fd30 f   libjpeg:jcapimin.obj
 0001:0002ed70       _jpeg_abort_compress       0042fd70 f   libjpeg:jcapimin.obj
 0001:0002edb0       _jpeg_suppress_tables      0042fdb0 f   libjpeg:jcapimin.obj
 0001:0002ee60       _jpeg_finish_compress      0042fe60 f   libjpeg:jcapimin.obj
 0001:0002f070       _jpeg_write_marker         00430070 f   libjpeg:jcapimin.obj
 0001:0002f160       _jpeg_write_m_header       00430160 f   libjpeg:jcapimin.obj
 0001:0002f210       _jpeg_write_m_byte         00430210 f   libjpeg:jcapimin.obj
 0001:0002f260       _jpeg_write_tables         00430260 f   libjpeg:jcapimin.obj
 0001:0002f340       _jpeg_start_compress       00430340 f   libjpeg:jcapistd.obj
 0001:0002f440       _jpeg_write_scanlines      00430440 f   libjpeg:jcapistd.obj
 0001:0002f5c0       _jpeg_write_raw_data       004305c0 f   libjpeg:jcapistd.obj
 0001:0002f750       _jpeg_add_quant_table      00430750 f   libjpeg:jcparam.obj
 0001:0002f8a0       _jpeg_set_linear_quality   004308a0 f   libjpeg:jcparam.obj
 0001:0002f900       _jpeg_quality_scaling      00430900 f   libjpeg:jcparam.obj
 0001:0002f960       _jpeg_set_quality          00430960 f   libjpeg:jcparam.obj
 0001:0002f9b0       _jpeg_set_defaults         004309b0 f   libjpeg:jcparam.obj
 0001:0002fcf0       _jpeg_default_colorspace   00430cf0 f   libjpeg:jcparam.obj
 0001:0002fdd0       _jpeg_set_colorspace       00430dd0 f   libjpeg:jcparam.obj
 0001:00030420       _jpeg_simple_progression   00431420 f   libjpeg:jcparam.obj
 0001:000308b0       _jpeg_std_error            004318b0 f   libjpeg:jerror.obj
 0001:00030c70       _jinit_memory_mgr          00431c70 f   libjpeg:jmemmgr.obj
 0001:00032350       _jpeg_abort                00433350 f   libjpeg:jcomapi.obj
 0001:000323f0       _jpeg_destroy              004333f0 f   libjpeg:jcomapi.obj
 0001:00032450       _jpeg_alloc_quant_table    00433450 f   libjpeg:jcomapi.obj
 0001:000324b0       _jpeg_alloc_huff_table     004334b0 f   libjpeg:jcomapi.obj
 0001:00032510       _jinit_marker_writer       00433510 f   libjpeg:jcmarker.obj
 0001:00033520       _jinit_compress_master     00434520 f   libjpeg:jcinit.obj
 0001:00033680       _jpeg_get_small            00434680 f   libjpeg:jmemnobs.obj
 0001:000336c0       _jpeg_free_small           004346c0 f   libjpeg:jmemnobs.obj
 0001:00033700       _jpeg_get_large            00434700 f   libjpeg:jmemnobs.obj
 0001:00033740       _jpeg_free_large           00434740 f   libjpeg:jmemnobs.obj
 0001:00033780       _jpeg_mem_available        00434780 f   libjpeg:jmemnobs.obj
 0001:000337b0       _jpeg_open_backing_store   004347b0 f   libjpeg:jmemnobs.obj
 0001:00033800       _jpeg_mem_init             00434800 f   libjpeg:jmemnobs.obj
 0001:00033830       _jpeg_mem_term             00434830 f   libjpeg:jmemnobs.obj
 0001:00033850       _jdiv_round_up             00434850 f   libjpeg:jutils.obj
 0001:00033880       _jround_up                 00434880 f   libjpeg:jutils.obj
 0001:000338c0       _jcopy_sample_rows         004348c0 f   libjpeg:jutils.obj
 0001:00033960       _jcopy_block_row           00434960 f   libjpeg:jutils.obj
 0001:000339a0       _jzero_far                 004349a0 f   libjpeg:jutils.obj
 0001:000339e0       _jinit_c_main_controller   004349e0 f   libjpeg:jcmainct.obj
 0001:00033cd0       _jinit_c_coef_controller   00434cd0 f   libjpeg:jccoefct.obj
 0001:00034820       _jpeg_make_c_derived_tbl   00435820 f   libjpeg:jchuff.obj
 0001:00034b50       _jpeg_gen_optimal_table    00435b50 f   libjpeg:jchuff.obj
 0001:00035060       _jinit_huff_encoder        00436060 f   libjpeg:jchuff.obj
 0001:00036060       _jinit_phuff_encoder       00437060 f   libjpeg:jcphuff.obj
 0001:00037420       _jinit_forward_dct         00438420 f   libjpeg:jcdctmgr.obj
 0001:00037fa0       _jinit_c_prep_controller   00438fa0 f   libjpeg:jcprepct.obj
 0001:00038840       _jinit_downsampler         00439840 f   libjpeg:jcsample.obj
 0001:000396a0       _jinit_color_converter     0043a6a0 f   libjpeg:jccolor.obj
 0001:0003a1f0       _jinit_c_master_control    0043b1f0 f   libjpeg:jcmaster.obj
 0001:0003b630       _jpeg_fdct_float           0043c630 f   libjpeg:jfdctflt.obj
 0001:0003b9b0       _jpeg_fdct_ifast           0043c9b0 f   libjpeg:jfdctfst.obj
 0001:0003bd50       _jpeg_fdct_islow           0043cd50 f   libjpeg:jfdctint.obj
 0001:0003c20e       ??3@YAXPAX@Z               0043d20e f   MSVCRTD:MSVCRTD.dll
 0001:0003c214       _free                      0043d214 f   MSVCRTD:MSVCRTD.dll
 0001:0003c21a       _strcat                    0043d21a f   MSVCRTD:MSVCRTD.dll
 0001:0003c220       _strcpy                    0043d220 f   MSVCRTD:MSVCRTD.dll
 0001:0003c226       ??2@YAPAXI@Z               0043d226 f   MSVCRTD:MSVCRTD.dll
 0001:0003c22c       _strlen                    0043d22c f   MSVCRTD:MSVCRTD.dll
 0001:0003c232       __vsnprintf                0043d232 f   MSVCRTD:MSVCRTD.dll
 0001:0003c238       _strncpy                   0043d238 f   MSVCRTD:MSVCRTD.dll
 0001:0003c23e       _ctime                     0043d23e f   MSVCRTD:MSVCRTD.dll
 0001:0003c244       _time                      0043d244 f   MSVCRTD:MSVCRTD.dll
 0001:0003c24a       _sprintf                   0043d24a f   MSVCRTD:MSVCRTD.dll
 0001:0003c250       _strcmp                    0043d250 f   MSVCRTD:MSVCRTD.dll
 0001:0003c256       _atoi                      0043d256 f   MSVCRTD:MSVCRTD.dll
 0001:0003c25c       _malloc                    0043d25c f   MSVCRTD:MSVCRTD.dll
 0001:0003c262       _rand                      0043d262 f   MSVCRTD:MSVCRTD.dll
 0001:0003c268       _srand                     0043d268 f   MSVCRTD:MSVCRTD.dll
 0001:0003c26e       _memcpy                    0043d26e f   MSVCRTD:MSVCRTD.dll
 0001:0003c274       _memset                    0043d274 f   MSVCRTD:MSVCRTD.dll
 0001:0003c27a       _memcmp                    0043d27a f   MSVCRTD:MSVCRTD.dll
 0001:0003c280       _memmove                   0043d280 f   MSVCRTD:MSVCRTD.dll
 0001:0003c286       ___CxxFrameHandler         0043d286 f   MSVCRTD:MSVCRTD.dll
 0001:0003c290       _sscanf                    0043d290 f   MSVCRTD:MSVCRTD.dll
 0001:0003c296       _tolower                   0043d296 f   MSVCRTD:MSVCRTD.dll
 0001:0003c29c       __CrtDbgReport             0043d29c f   MSVCRTD:MSVCRTD.dll
 0001:0003c2b0       ??_M@YGXPAXIHP6EX0@Z@Z     0043d2b0 f   MSVCRTD:ehvecdtr.obj
 0001:0003c360       ?__ArrayUnwind@@YGXPAXIHP6EX0@Z@Z 0043d360 f   MSVCRTD:ehvecdtr.obj
 0001:0003c410       ??_L@YGXPAXIHP6EX0@Z1@Z    0043d410 f   MSVCRTD:ehvecctr.obj
 0001:0003c4b0       _strchr                    0043d4b0 f   MSVCRTD:MSVCRTD.dll
 0001:0003c4b6       _atol                      0043d4b6 f   MSVCRTD:MSVCRTD.dll
 0001:0003c4bc       _abs                       0043d4bc f   MSVCRTD:MSVCRTD.dll
 0001:0003c4c2       _calloc                    0043d4c2 f   MSVCRTD:MSVCRTD.dll
 0001:0003c4c8       _exit                      0043d4c8 f   MSVCRTD:MSVCRTD.dll
 0001:0003c4ce       _fprintf                   0043d4ce f   MSVCRTD:MSVCRTD.dll
 0001:0003c4e0       __chkstk                   0043d4e0 f   MSVCRTD:chkstk.obj
 0001:0003c4e0       __alloca_probe             0043d4e0 f   MSVCRTD:chkstk.obj
 0001:0003c510       _isalnum                   0043d510 f   MSVCRTD:MSVCRTD.dll
 0001:0003c520       __onexit                   0043d520 f   MSVCRTD:atonexit.obj
 0001:0003c560       _atexit                    0043d560 f   MSVCRTD:atonexit.obj
 0001:0003c578       _strncat                   0043d578 f   MSVCRTD:MSVCRTD.dll
 0001:0003c580       __alldiv                   0043d580 f   MSVCRTD:lldiv.obj
 0001:0003c62a       __errno                    0043d62a f   MSVCRTD:MSVCRTD.dll
 0001:0003c630       _strncmp                   0043d630 f   MSVCRTD:MSVCRTD.dll
 0001:0003c636       __CrtSetDbgFlag            0043d636 f   MSVCRTD:MSVCRTD.dll
 0001:0003c640       _WinMainCRTStartup         0043d640 f   MSVCRTD:crtexew.obj
 0001:0003c83a       __chkesp                   0043d83a f   MSVCRTD:MSVCRTD.dll
 0001:0003c840       _getenv                    0043d840 f   MSVCRTD:MSVCRTD.dll
 0001:0003c846       __ftol                     0043d846 f   MSVCRTD:MSVCRTD.dll
 0001:0003c84c       __except_handler3          0043d84c f   MSVCRTD:MSVCRTD.dll
 0001:0003c852       ?terminate@@YAXXZ          0043d852 f   MSVCRTD:MSVCRTD.dll
 0001:0003c858       ___dllonexit               0043d858 f   MSVCRTD:MSVCRTD.dll
 0001:0003c85e       __exit                     0043d85e f   MSVCRTD:MSVCRTD.dll
 0001:0003c864       __XcptFilter               0043d864 f   MSVCRTD:MSVCRTD.dll
 0001:0003c86a       ___getmainargs             0043d86a f   MSVCRTD:MSVCRTD.dll
 0001:0003c870       __initterm                 0043d870 f   MSVCRTD:MSVCRTD.dll
 0001:0003c880       __setdefaultprecision      0043d880 f   MSVCRTD:fp8.obj
 0001:0003c898       ___setusermatherr          0043d898 f   MSVCRTD:MSVCRTD.dll
 0001:0003c8a0       __matherr                  0043d8a0 f   MSVCRTD:merr.obj
 0001:0003c8b0       __setargv                  0043d8b0 f   MSVCRTD:dllargv.obj
 0001:0003c8b6       ___p__commode              0043d8b6 f   MSVCRTD:MSVCRTD.dll
 0001:0003c8bc       ___p__fmode                0043d8bc f   MSVCRTD:MSVCRTD.dll
 0001:0003c8c2       ___set_app_type            0043d8c2 f   MSVCRTD:MSVCRTD.dll
 0001:0003c8c8       __controlfp                0043d8c8 f   MSVCRTD:MSVCRTD.dll
 0001:0003c8d0       ??1_Lockit@std@@QAE@XZ     0043d8d0 f   msvcprtd:MSVCP60D.dll
 0001:0003c8d6       ??0_Lockit@std@@QAE@XZ     0043d8d6 f   msvcprtd:MSVCP60D.dll
 0001:0003c8dc       _GetModuleHandleA@4        0043d8dc f   kernel32:KERNEL32.dll
 0001:0003c8e2       _GetStartupInfoA@4         0043d8e2 f   kernel32:KERNEL32.dll
 0001:0003c8e8       __strdup                   0043d8e8 f   MSVCRTD:MSVCRTD.dll
 0002:00000000       __imp__RegQueryValueExA@24 0043f000     advapi32:ADVAPI32.dll
 0002:00000004       __imp__RegisterEventSourceA@8 0043f004     advapi32:ADVAPI32.dll
 0002:00000008       __imp__ReportEventA@36     0043f008     advapi32:ADVAPI32.dll
 0002:0000000c       __imp__DeregisterEventSource@4 0043f00c     advapi32:ADVAPI32.dll
 0002:00000010       __imp__SetServiceStatus@8  0043f010     advapi32:ADVAPI32.dll
 0002:00000014       __imp__RegOpenKeyA@12      0043f014     advapi32:ADVAPI32.dll
 0002:00000018       __imp__RegDeleteValueA@8   0043f018     advapi32:ADVAPI32.dll
 0002:0000001c       __imp__OpenServiceA@12     0043f01c     advapi32:ADVAPI32.dll
 0002:00000020       __imp__ControlService@12   0043f020     advapi32:ADVAPI32.dll
 0002:00000024       __imp__QueryServiceStatus@8 0043f024     advapi32:ADVAPI32.dll
 0002:00000028       __imp__DeleteService@4     0043f028     advapi32:ADVAPI32.dll
 0002:0000002c       __imp__RegCreateKeyA@12    0043f02c     advapi32:ADVAPI32.dll
 0002:00000030       __imp__OpenSCManagerA@12   0043f030     advapi32:ADVAPI32.dll
 0002:00000034       __imp__CreateServiceA@52   0043f034     advapi32:ADVAPI32.dll
 0002:00000038       __imp__CloseServiceHandle@4 0043f038     advapi32:ADVAPI32.dll
 0002:0000003c       __imp__RegisterServiceCtrlHandlerA@8 0043f03c     advapi32:ADVAPI32.dll
 0002:00000040       __imp__StartServiceCtrlDispatcherA@4 0043f040     advapi32:ADVAPI32.dll
 0002:00000044       __imp__OpenProcessToken@12 0043f044     advapi32:ADVAPI32.dll
 0002:00000048       __imp__ImpersonateLoggedOnUser@4 0043f048     advapi32:ADVAPI32.dll
 0002:0000004c       __imp__RevertToSelf@0      0043f04c     advapi32:ADVAPI32.dll
 0002:00000050       __imp__GetUserNameA@8      0043f050     advapi32:ADVAPI32.dll
 0002:00000054       __imp__RegCloseKey@4       0043f054     advapi32:ADVAPI32.dll
 0002:00000058       __imp__RegCreateKeyExA@36  0043f058     advapi32:ADVAPI32.dll
 0002:0000005c       __imp__RegOpenKeyExA@20    0043f05c     advapi32:ADVAPI32.dll
 0002:00000060       __imp__RegSetValueExA@24   0043f060     advapi32:ADVAPI32.dll
 0002:00000064       \177ADVAPI32_NULL_THUNK_DATA 0043f064     advapi32:ADVAPI32.dll
 0002:00000068       __imp__GetRegionData@12    0043f068     gdi32:GDI32.dll
 0002:0000006c       __imp__CreateRectRgn@16    0043f06c     gdi32:GDI32.dll
 0002:00000070       __imp__CreateRectRgnIndirect@4 0043f070     gdi32:GDI32.dll
 0002:00000074       __imp__CombineRgn@16       0043f074     gdi32:GDI32.dll
 0002:00000078       __imp__GetObjectA@12       0043f078     gdi32:GDI32.dll
 0002:0000007c       __imp__GetBitmapBits@12    0043f07c     gdi32:GDI32.dll
 0002:00000080       __imp__GdiFlush@0          0043f080     gdi32:GDI32.dll
 0002:00000084       __imp__SelectObject@8      0043f084     gdi32:GDI32.dll
 0002:00000088       __imp__BitBlt@36           0043f088     gdi32:GDI32.dll
 0002:0000008c       __imp__CreateDIBSection@24 0043f08c     gdi32:GDI32.dll
 0002:00000090       __imp__GetStockObject@4    0043f090     gdi32:GDI32.dll
 0002:00000094       __imp__GetSystemPaletteEntries@16 0043f094     gdi32:GDI32.dll
 0002:00000098       __imp__CreatePalette@4     0043f098     gdi32:GDI32.dll
 0002:0000009c       __imp__SelectPalette@12    0043f09c     gdi32:GDI32.dll
 0002:000000a0       __imp__RealizePalette@4    0043f0a0     gdi32:GDI32.dll
 0002:000000a4       __imp__GetDeviceCaps@8     0043f0a4     gdi32:GDI32.dll
 0002:000000a8       __imp__CreateCompatibleDC@4 0043f0a8     gdi32:GDI32.dll
 0002:000000ac       __imp__CreateCompatibleBitmap@12 0043f0ac     gdi32:GDI32.dll
 0002:000000b0       __imp__GetDIBits@28        0043f0b0     gdi32:GDI32.dll
 0002:000000b4       __imp__DeleteObject@4      0043f0b4     gdi32:GDI32.dll
 0002:000000b8       __imp__DeleteDC@4          0043f0b8     gdi32:GDI32.dll
 0002:000000bc       \177GDI32_NULL_THUNK_DATA  0043f0bc     gdi32:GDI32.dll
 0002:000000c0       __imp__SizeofResource@8    0043f0c0     kernel32:KERNEL32.dll
 0002:000000c4       __imp__FindResourceA@12    0043f0c4     kernel32:KERNEL32.dll
 0002:000000c8       __imp__CreateMutexA@12     0043f0c8     kernel32:KERNEL32.dll
 0002:000000cc       __imp__SystemTimeToFileTime@8 0043f0cc     kernel32:KERNEL32.dll
 0002:000000d0       __imp__GetSystemTime@4     0043f0d0     kernel32:KERNEL32.dll
 0002:000000d4       __imp__FreeLibrary@4       0043f0d4     kernel32:KERNEL32.dll
 0002:000000d8       __imp__GetProcAddress@8    0043f0d8     kernel32:KERNEL32.dll
 0002:000000dc       __imp__LoadLibraryA@4      0043f0dc     kernel32:KERNEL32.dll
 0002:000000e0       __imp__OpenProcess@12      0043f0e0     kernel32:KERNEL32.dll
 0002:000000e4       __imp__CreateProcessA@40   0043f0e4     kernel32:KERNEL32.dll
 0002:000000e8       __imp__GetModuleFileNameA@12 0043f0e8     kernel32:KERNEL32.dll
 0002:000000ec       __imp__Sleep@4             0043f0ec     kernel32:KERNEL32.dll
 0002:000000f0       __imp__SetProcessShutdownParameters@8 0043f0f0     kernel32:KERNEL32.dll
 0002:000000f4       __imp__GetModuleHandleA@4  0043f0f4     kernel32:KERNEL32.dll
 0002:000000f8       __imp__AllocConsole@0      0043f0f8     kernel32:KERNEL32.dll
 0002:000000fc       __imp__SetEndOfFile@4      0043f0fc     kernel32:KERNEL32.dll
 0002:00000100       __imp__SetFilePointer@16   0043f100     kernel32:KERNEL32.dll
 0002:00000104       __imp__CreateFileA@28      0043f104     kernel32:KERNEL32.dll
 0002:00000108       __imp__MoveFileA@8         0043f108     kernel32:KERNEL32.dll
 0002:0000010c       __imp__DeleteFileA@4       0043f10c     kernel32:KERNEL32.dll
 0002:00000110       __imp__CloseHandle@4       0043f110     kernel32:KERNEL32.dll
 0002:00000114       __imp__WriteFile@20        0043f114     kernel32:KERNEL32.dll
 0002:00000118       __imp__WriteConsoleA@20    0043f118     kernel32:KERNEL32.dll
 0002:0000011c       __imp__LoadResource@8      0043f11c     kernel32:KERNEL32.dll
 0002:00000120       __imp__GetStdHandle@4      0043f120     kernel32:KERNEL32.dll
 0002:00000124       __imp__OutputDebugStringA@4 0043f124     kernel32:KERNEL32.dll
 0002:00000128       __imp__GetCurrentProcessId@0 0043f128     kernel32:KERNEL32.dll
 0002:0000012c       __imp__GetComputerNameA@8  0043f12c     kernel32:KERNEL32.dll
 0002:00000130       __imp__GetLastError@0      0043f130     kernel32:KERNEL32.dll
 0002:00000134       __imp__GetCurrentThreadId@0 0043f134     kernel32:KERNEL32.dll
 0002:00000138       __imp__GlobalAddAtomA@4    0043f138     kernel32:KERNEL32.dll
 0002:0000013c       __imp__GlobalDeleteAtom@4  0043f13c     kernel32:KERNEL32.dll
 0002:00000140       __imp__GetVersionExA@4     0043f140     kernel32:KERNEL32.dll
 0002:00000144       __imp__GlobalUnlock@4      0043f144     kernel32:KERNEL32.dll
 0002:00000148       __imp__GlobalLock@4        0043f148     kernel32:KERNEL32.dll
 0002:0000014c       __imp__GlobalAlloc@8       0043f14c     kernel32:KERNEL32.dll
 0002:00000150       __imp__LockResource@4      0043f150     kernel32:KERNEL32.dll
 0002:00000154       __imp__GetStartupInfoA@4   0043f154     kernel32:KERNEL32.dll
 0002:00000158       \177KERNEL32_NULL_THUNK_DATA 0043f158     kernel32:KERNEL32.dll
 0002:0000015c       __imp_??1_Lockit@std@@QAE@XZ 0043f15c     msvcprtd:MSVCP60D.dll
 0002:00000160       __imp_??0_Lockit@std@@QAE@XZ 0043f160     msvcprtd:MSVCP60D.dll
 0002:00000164       \177MSVCP60D_NULL_THUNK_DATA 0043f164     msvcprtd:MSVCP60D.dll
 0002:00000168       __imp__fprintf             0043f168     MSVCRTD:MSVCRTD.dll
 0002:0000016c       __imp___iob                0043f16c     MSVCRTD:MSVCRTD.dll
 0002:0000016c       __iob                      0043f16c     MSVCRTD:MSVCRTD.dll
 0002:00000170       __imp__isalnum             0043f170     MSVCRTD:MSVCRTD.dll
 0002:00000174       __imp__strncat             0043f174     MSVCRTD:MSVCRTD.dll
 0002:00000178       __imp___errno              0043f178     MSVCRTD:MSVCRTD.dll
 0002:0000017c       __imp__strncmp             0043f17c     MSVCRTD:MSVCRTD.dll
 0002:00000180       __imp__atol                0043f180     MSVCRTD:MSVCRTD.dll
 0002:00000184       __imp__strchr              0043f184     MSVCRTD:MSVCRTD.dll
 0002:00000188       __imp___CrtDbgReport       0043f188     MSVCRTD:MSVCRTD.dll
 0002:0000018c       __imp__tolower             0043f18c     MSVCRTD:MSVCRTD.dll
 0002:00000190       __imp__sscanf              0043f190     MSVCRTD:MSVCRTD.dll
 0002:00000194       __imp____CxxFrameHandler   0043f194     MSVCRTD:MSVCRTD.dll
 0002:00000198       __imp__memmove             0043f198     MSVCRTD:MSVCRTD.dll
 0002:0000019c       __imp__memcmp              0043f19c     MSVCRTD:MSVCRTD.dll
 0002:000001a0       __imp__memset              0043f1a0     MSVCRTD:MSVCRTD.dll
 0002:000001a4       __imp__memcpy              0043f1a4     MSVCRTD:MSVCRTD.dll
 0002:000001a8       __imp__srand               0043f1a8     MSVCRTD:MSVCRTD.dll
 0002:000001ac       __imp__rand                0043f1ac     MSVCRTD:MSVCRTD.dll
 0002:000001b0       __imp__malloc              0043f1b0     MSVCRTD:MSVCRTD.dll
 0002:000001b4       __imp__atoi                0043f1b4     MSVCRTD:MSVCRTD.dll
 0002:000001b8       __imp__sprintf             0043f1b8     MSVCRTD:MSVCRTD.dll
 0002:000001bc       __imp__time                0043f1bc     MSVCRTD:MSVCRTD.dll
 0002:000001c0       __imp__ctime               0043f1c0     MSVCRTD:MSVCRTD.dll
 0002:000001c4       __imp__strncpy             0043f1c4     MSVCRTD:MSVCRTD.dll
 0002:000001c8       __imp__exit                0043f1c8     MSVCRTD:MSVCRTD.dll
 0002:000001cc       __imp__strlen              0043f1cc     MSVCRTD:MSVCRTD.dll
 0002:000001d0       __imp_??2@YAPAXI@Z         0043f1d0     MSVCRTD:MSVCRTD.dll
 0002:000001d4       __imp__strcpy              0043f1d4     MSVCRTD:MSVCRTD.dll
 0002:000001d8       __imp__strcat              0043f1d8     MSVCRTD:MSVCRTD.dll
 0002:000001dc       __imp___chkesp             0043f1dc     MSVCRTD:MSVCRTD.dll
 0002:000001e0       __imp__getenv              0043f1e0     MSVCRTD:MSVCRTD.dll
 0002:000001e4       __imp___ftol               0043f1e4     MSVCRTD:MSVCRTD.dll
 0002:000001e8       __imp_??3@YAXPAX@Z         0043f1e8     MSVCRTD:MSVCRTD.dll
 0002:000001ec       __imp___except_handler3    0043f1ec     MSVCRTD:MSVCRTD.dll
 0002:000001f0       __imp_?terminate@@YAXXZ    0043f1f0     MSVCRTD:MSVCRTD.dll
 0002:000001f4       __imp____dllonexit         0043f1f4     MSVCRTD:MSVCRTD.dll
 0002:000001f8       __imp___onexit             0043f1f8     MSVCRTD:MSVCRTD.dll
 0002:000001fc       __imp___exit               0043f1fc     MSVCRTD:MSVCRTD.dll
 0002:00000200       __imp___XcptFilter         0043f200     MSVCRTD:MSVCRTD.dll
 0002:00000204       __imp___acmdln             0043f204     MSVCRTD:MSVCRTD.dll
 0002:00000208       __imp____getmainargs       0043f208     MSVCRTD:MSVCRTD.dll
 0002:0000020c       __imp___initterm           0043f20c     MSVCRTD:MSVCRTD.dll
 0002:00000210       __imp____setusermatherr    0043f210     MSVCRTD:MSVCRTD.dll
 0002:00000214       __imp___adjust_fdiv        0043f214     MSVCRTD:MSVCRTD.dll
 0002:00000218       __imp____p__commode        0043f218     MSVCRTD:MSVCRTD.dll
 0002:0000021c       __imp____p__fmode          0043f21c     MSVCRTD:MSVCRTD.dll
 0002:00000220       __imp____set_app_type      0043f220     MSVCRTD:MSVCRTD.dll
 0002:00000224       __imp___controlfp          0043f224     MSVCRTD:MSVCRTD.dll
 0002:00000228       __imp__calloc              0043f228     MSVCRTD:MSVCRTD.dll
 0002:0000022c       __imp___vsnprintf          0043f22c     MSVCRTD:MSVCRTD.dll
 0002:00000230       __imp__abs                 0043f230     MSVCRTD:MSVCRTD.dll
 0002:00000234       __imp__free                0043f234     MSVCRTD:MSVCRTD.dll
 0002:00000238       __imp___CrtSetDbgFlag      0043f238     MSVCRTD:MSVCRTD.dll
 0002:0000023c       __imp__strcmp              0043f23c     MSVCRTD:MSVCRTD.dll
 0002:00000240       __imp___strdup             0043f240     MSVCRTD:MSVCRTD.dll
 0002:00000240       __imp__strdup              0043f240     MSVCRTD:MSVCRTD.dll
 0002:00000244       \177MSVCRTD_NULL_THUNK_DATA 0043f244     MSVCRTD:MSVCRTD.dll
 0002:00000248       __imp__Shell_NotifyIconA@8 0043f248     shell32:SHELL32.dll
 0002:0000024c       \177SHELL32_NULL_THUNK_DATA 0043f24c     shell32:SHELL32.dll
 0002:00000250       __imp__GetDlgItemInt@16    0043f250     user32:USER32.dll
 0002:00000254       __imp__SetFocus@4          0043f254     user32:USER32.dll
 0002:00000258       __imp__ExitWindowsEx@8     0043f258     user32:USER32.dll
 0002:0000025c       __imp__GetUserObjectInformationA@20 0043f25c     user32:USER32.dll
 0002:00000260       __imp__GetProcessWindowStation@0 0043f260     user32:USER32.dll
 0002:00000264       __imp__SetThreadDesktop@4  0043f264     user32:USER32.dll
 0002:00000268       __imp__OpenInputDesktop@12 0043f268     user32:USER32.dll
 0002:0000026c       __imp__PostThreadMessageA@16 0043f26c     user32:USER32.dll
 0002:00000270       __imp__TranslateMessage@4  0043f270     user32:USER32.dll
 0002:00000274       __imp__CheckMenuItem@12    0043f274     user32:USER32.dll
 0002:00000278       __imp__GetSubMenu@8        0043f278     user32:USER32.dll
 0002:0000027c       __imp__SetMenuDefaultItem@12 0043f27c     user32:USER32.dll
 0002:00000280       __imp__TrackPopupMenu@28   0043f280     user32:USER32.dll
 0002:00000284       __imp__GetMenuItemID@8     0043f284     user32:USER32.dll
 0002:00000288       __imp__LoadStringA@16      0043f288     user32:USER32.dll
 0002:0000028c       __imp__EnableMenuItem@12   0043f28c     user32:USER32.dll
 0002:00000290       __imp__DestroyMenu@4       0043f290     user32:USER32.dll
 0002:00000294       __imp__LoadIconA@8         0043f294     user32:USER32.dll
 0002:00000298       __imp__LoadMenuA@8         0043f298     user32:USER32.dll
 0002:0000029c       __imp__MapVirtualKeyA@8    0043f29c     user32:USER32.dll
 0002:000002a0       __imp__VkKeyScanA@4        0043f2a0     user32:USER32.dll
 0002:000002a4       __imp__GetAsyncKeyState@4  0043f2a4     user32:USER32.dll
 0002:000002a8       __imp__SetRect@20          0043f2a8     user32:USER32.dll
 0002:000002ac       __imp__GetClipboardOwner@0 0043f2ac     user32:USER32.dll
 0002:000002b0       __imp__GetClipboardData@4  0043f2b0     user32:USER32.dll
 0002:000002b4       __imp__DefWindowProcA@16   0043f2b4     user32:USER32.dll
 0002:000002b8       __imp__EnumWindows@8       0043f2b8     user32:USER32.dll
 0002:000002bc       __imp__SetDlgItemInt@16    0043f2bc     user32:USER32.dll
 0002:000002c0       __imp__IsWindowVisible@4   0043f2c0     user32:USER32.dll
 0002:000002c4       __imp__SetPropA@12         0043f2c4     user32:USER32.dll
 0002:000002c8       __imp__RemovePropA@8       0043f2c8     user32:USER32.dll
 0002:000002cc       __imp__OpenClipboard@4     0043f2cc     user32:USER32.dll
 0002:000002d0       __imp__SetClipboardData@8  0043f2d0     user32:USER32.dll
 0002:000002d4       __imp__CloseClipboard@0    0043f2d4     user32:USER32.dll
 0002:000002d8       __imp__GetIconInfo@8       0043f2d8     user32:USER32.dll
 0002:000002dc       __imp__DrawIconEx@36       0043f2dc     user32:USER32.dll
 0002:000002e0       __imp__LoadCursorA@8       0043f2e0     user32:USER32.dll
 0002:000002e4       __imp__RegisterClassExA@4  0043f2e4     user32:USER32.dll
 0002:000002e8       __imp__CreateWindowExA@48  0043f2e8     user32:USER32.dll
 0002:000002ec       __imp__SetClipboardViewer@4 0043f2ec     user32:USER32.dll
 0002:000002f0       __imp__GetDC@4             0043f2f0     user32:USER32.dll
 0002:000002f4       __imp__EnumDisplaySettingsA@12 0043f2f4     user32:USER32.dll
 0002:000002f8       __imp__ChangeDisplaySettingsA@8 0043f2f8     user32:USER32.dll
 0002:000002fc       __imp__FindWindowA@8       0043f2fc     user32:USER32.dll
 0002:00000300       __imp__OpenDesktopA@16     0043f300     user32:USER32.dll
 0002:00000304       __imp__EnumDesktopWindows@12 0043f304     user32:USER32.dll
 0002:00000308       __imp__CloseDesktop@4      0043f308     user32:USER32.dll
 0002:0000030c       __imp__SystemParametersInfoA@16 0043f30c     user32:USER32.dll
 0002:00000310       __imp__KillTimer@8         0043f310     user32:USER32.dll
 0002:00000314       __imp__ChangeClipboardChain@8 0043f314     user32:USER32.dll
 0002:00000318       __imp__DestroyWindow@4     0043f318     user32:USER32.dll
 0002:0000031c       __imp__ReleaseDC@8         0043f31c     user32:USER32.dll
 0002:00000320       __imp__PostMessageA@16     0043f320     user32:USER32.dll
 0002:00000324       __imp__PeekMessageA@20     0043f324     user32:USER32.dll
 0002:00000328       __imp__GetMessageA@16      0043f328     user32:USER32.dll
 0002:0000032c       __imp__DispatchMessageA@4  0043f32c     user32:USER32.dll
 0002:00000330       __imp__RegisterWindowMessageA@4 0043f330     user32:USER32.dll
 0002:00000334       __imp__GetPropA@8          0043f334     user32:USER32.dll
 0002:00000338       __imp__GetMenuState@12     0043f338     user32:USER32.dll
 0002:0000033c       __imp__SetRectEmpty@4      0043f33c     user32:USER32.dll
 0002:00000340       __imp__UnionRect@12        0043f340     user32:USER32.dll
 0002:00000344       __imp__IsRectEmpty@4       0043f344     user32:USER32.dll
 0002:00000348       __imp__GetCursorPos@4      0043f348     user32:USER32.dll
 0002:0000034c       __imp__WindowFromPoint@8   0043f34c     user32:USER32.dll
 0002:00000350       __imp__GetClassNameA@12    0043f350     user32:USER32.dll
 0002:00000354       __imp__GetWindowRect@8     0043f354     user32:USER32.dll
 0002:00000358       __imp__GetThreadDesktop@4  0043f358     user32:USER32.dll
 0002:0000035c       __imp__IntersectRect@12    0043f35c     user32:USER32.dll
 0002:00000360       __imp__GetSystemMetrics@4  0043f360     user32:USER32.dll
 0002:00000364       __imp__mouse_event@20      0043f364     user32:USER32.dll
 0002:00000368       __imp__GetKeyboardState@4  0043f368     user32:USER32.dll
 0002:0000036c       __imp__keybd_event@16      0043f36c     user32:USER32.dll
 0002:00000370       __imp__SetWindowTextA@8    0043f370     user32:USER32.dll
 0002:00000374       __imp__SendMessageA@16     0043f374     user32:USER32.dll
 0002:00000378       __imp__SendDlgItemMessageA@20 0043f378     user32:USER32.dll
 0002:0000037c       __imp__CheckDlgButton@12   0043f37c     user32:USER32.dll
 0002:00000380       __imp__GetDlgItemTextA@16  0043f380     user32:USER32.dll
 0002:00000384       __imp__IsDlgButtonChecked@8 0043f384     user32:USER32.dll
 0002:00000388       __imp__MessageBoxA@16      0043f388     user32:USER32.dll
 0002:0000038c       __imp__PostQuitMessage@4   0043f38c     user32:USER32.dll
 0002:00000390       __imp__GetDlgItem@8        0043f390     user32:USER32.dll
 0002:00000394       __imp__EnableWindow@8      0043f394     user32:USER32.dll
 0002:00000398       __imp__SetDlgItemTextA@12  0043f398     user32:USER32.dll
 0002:0000039c       __imp__SetTimer@16         0043f39c     user32:USER32.dll
 0002:000003a0       __imp__GetForegroundWindow@0 0043f3a0     user32:USER32.dll
 0002:000003a4       __imp__GetWindowThreadProcessId@8 0043f3a4     user32:USER32.dll
 0002:000003a8       __imp__SetActiveWindow@4   0043f3a8     user32:USER32.dll
 0002:000003ac       __imp__MessageBeep@4       0043f3ac     user32:USER32.dll
 0002:000003b0       __imp__FlashWindow@8       0043f3b0     user32:USER32.dll
 0002:000003b4       __imp__GetWindowLongA@8    0043f3b4     user32:USER32.dll
 0002:000003b8       __imp__SetWindowLongA@12   0043f3b8     user32:USER32.dll
 0002:000003bc       __imp__SetForegroundWindow@4 0043f3bc     user32:USER32.dll
 0002:000003c0       __imp__EndDialog@8         0043f3c0     user32:USER32.dll
 0002:000003c4       __imp__DialogBoxParamA@20  0043f3c4     user32:USER32.dll
 0002:000003c8       __imp__EmptyClipboard@0    0043f3c8     user32:USER32.dll
 0002:000003cc       \177USER32_NULL_THUNK_DATA 0043f3cc     user32:USER32.dll
 0002:000003d0       __imp__gethostbyname@4     0043f3d0     wsock32:WSOCK32.dll
 0002:000003d4       __imp__gethostname@8       0043f3d4     wsock32:WSOCK32.dll
 0002:000003d8       __imp__inet_ntoa@4         0043f3d8     wsock32:WSOCK32.dll
 0002:000003dc       __imp__WSAStartup@8        0043f3dc     wsock32:WSOCK32.dll
 0002:000003e0       __imp__WSACleanup@0        0043f3e0     wsock32:WSOCK32.dll
 0002:000003e4       __imp__socket@12           0043f3e4     wsock32:WSOCK32.dll
 0002:000003e8       __imp__closesocket@4       0043f3e8     wsock32:WSOCK32.dll
 0002:000003ec       __imp__shutdown@8          0043f3ec     wsock32:WSOCK32.dll
 0002:000003f0       __imp__bind@12             0043f3f0     wsock32:WSOCK32.dll
 0002:000003f4       __imp__htonl@4             0043f3f4     wsock32:WSOCK32.dll
 0002:000003f8       __imp__htons@4             0043f3f8     wsock32:WSOCK32.dll
 0002:000003fc       __imp__ioctlsocket@12      0043f3fc     wsock32:WSOCK32.dll
 0002:00000400       __imp__connect@12          0043f400     wsock32:WSOCK32.dll
 0002:00000404       __imp__inet_addr@4         0043f404     wsock32:WSOCK32.dll
 0002:00000408       __imp__listen@8            0043f408     wsock32:WSOCK32.dll
 0002:0000040c       __imp__accept@12           0043f40c     wsock32:WSOCK32.dll
 0002:00000410       __imp__getpeername@12      0043f410     wsock32:WSOCK32.dll
 0002:00000414       __imp__getsockname@12      0043f414     wsock32:WSOCK32.dll
 0002:00000418       __imp__WSAGetLastError@0   0043f418     wsock32:WSOCK32.dll
 0002:0000041c       __imp__send@16             0043f41c     wsock32:WSOCK32.dll
 0002:00000420       __imp____WSAFDIsSet@8      0043f420     wsock32:WSOCK32.dll
 0002:00000424       __imp__select@20           0043f424     wsock32:WSOCK32.dll
 0002:00000428       __imp__recv@16             0043f428     wsock32:WSOCK32.dll
 0002:0000042c       __imp__setsockopt@20       0043f42c     wsock32:WSOCK32.dll
 0002:00000430       \177WSOCK32_NULL_THUNK_DATA 0043f430     wsock32:WSOCK32.dll
 0002:00000434       __imp__CoInitialize@4      0043f434     ole32:ole32.dll
 0002:00000438       __imp__CoCreateInstance@20 0043f438     ole32:ole32.dll
 0002:0000043c       \177ole32_NULL_THUNK_DATA  0043f43c     ole32:ole32.dll
 0002:00000440       __imp_??1omni_thread@@MAE@XZ 0043f440     omnithread_rtd:omnithread_rtd.dll
 0002:00000444       __imp_?create@omni_thread@@SAPAV1@P6APAXPAX@Z0W4priority_t@1@@Z 0043f444     omnithread_rtd:omnithread_rtd.dll
 0002:00000448       __imp_?sleep@omni_thread@@SAXKK@Z 0043f448     omnithread_rtd:omnithread_rtd.dll
 0002:0000044c       __imp_??0init_t@omni_thread@@QAE@XZ 0043f44c     omnithread_rtd:omnithread_rtd.dll
 0002:00000450       __imp_?create@omni_thread@@SAPAV1@P6AXPAX@Z0W4priority_t@1@@Z 0043f450     omnithread_rtd:omnithread_rtd.dll
 0002:00000454       __imp_?run_undetached@omni_thread@@EAEPAXPAX@Z 0043f454     omnithread_rtd:omnithread_rtd.dll
 0002:00000458       __imp_?start@omni_thread@@QAEXXZ 0043f458     omnithread_rtd:omnithread_rtd.dll
 0002:0000045c       __imp_??1omni_mutex_lock@@QAE@XZ 0043f45c     omnithread_rtd:omnithread_rtd.dll
 0002:00000460       __imp_??0omni_mutex_lock@@QAE@AAVomni_mutex@@@Z 0043f460     omnithread_rtd:omnithread_rtd.dll
 0002:00000464       __imp_??1omni_mutex@@QAE@XZ 0043f464     omnithread_rtd:omnithread_rtd.dll
 0002:00000468       __imp_??0omni_mutex@@QAE@XZ 0043f468     omnithread_rtd:omnithread_rtd.dll
 0002:0000046c       __imp_??0omni_thread@@IAE@PAXW4priority_t@0@@Z 0043f46c     omnithread_rtd:omnithread_rtd.dll
 0002:00000470       __imp_?wait@omni_condition@@QAEXXZ 0043f470     omnithread_rtd:omnithread_rtd.dll
 0002:00000474       __imp_?start_undetached@omni_thread@@IAEXXZ 0043f474     omnithread_rtd:omnithread_rtd.dll
 0002:00000478       __imp_??0omni_condition@@QAE@PAVomni_mutex@@@Z 0043f478     omnithread_rtd:omnithread_rtd.dll
 0002:0000047c       __imp_?signal@omni_condition@@QAEXXZ 0043f47c     omnithread_rtd:omnithread_rtd.dll
 0002:00000480       __imp_?set_priority@omni_thread@@QAEXW4priority_t@1@@Z 0043f480     omnithread_rtd:omnithread_rtd.dll
 0002:00000484       __imp_?join@omni_thread@@QAEXPAPAX@Z 0043f484     omnithread_rtd:omnithread_rtd.dll
 0002:00000488       __imp_?run@omni_thread@@EAEXPAX@Z 0043f488     omnithread_rtd:omnithread_rtd.dll
 0002:0000048c       __imp_??1omni_condition@@QAE@XZ 0043f48c     omnithread_rtd:omnithread_rtd.dll
 0002:00000490       __imp_?self@omni_thread@@SAPAV1@XZ 0043f490     omnithread_rtd:omnithread_rtd.dll
 0002:00000494       \177omnithread_rtd_NULL_THUNK_DATA 0043f494     omnithread_rtd:omnithread_rtd.dll
 0002:00000498       __imp__SetKeyboardFilterHook 0043f498     rdHooks:rdHooks.dll
 0002:0000049c       __imp__SetHook             0043f49c     rdHooks:rdHooks.dll
 0002:000004a0       __imp__UnSetHook           0043f4a0     rdHooks:rdHooks.dll
 0002:000004a4       __imp__SetMouseFilterHook  0043f4a4     rdHooks:rdHooks.dll
 0002:000004a8       \177rdHooks_NULL_THUNK_DATA 0043f4a8     rdHooks:rdHooks.dll
 0002:000004ac       __imp__deflate@8           0043f4ac     zlib:zlib.dll
 0002:000004b0       __imp__deflateParams@12    0043f4b0     zlib:zlib.dll
 0002:000004b4       __imp__deflateInit2_@32    0043f4b4     zlib:zlib.dll
 0002:000004b8       __imp__deflateEnd@4        0043f4b8     zlib:zlib.dll
 0002:000004bc       \177zlib_NULL_THUNK_DATA   0043f4bc     zlib:zlib.dll
 0002:000004dc       ?ToDebug@Log@@2HB          0043f4dc     Log.obj
 0002:000004e0       ?ToFile@Log@@2HB           0043f4e0     Log.obj
 0002:000004e4       ?ToConsole@Log@@2HB        0043f4e4     Log.obj
 0002:000004e8       ??_7Log@@6B@               0043f4e8     Log.obj
 0002:000004ec       ??_C@_0BL@LLBC@Error?5opening?5log?5file?5?$CFs?6?$AA@ 0043f4ec     Log.obj
 0002:00000508       ??_C@_04JBA@?4bak?$AA@     0043f508     Log.obj
 0002:00000510       ??_C@_0BI@DLIM@Error?5opening?5log?5file?6?$AA@ 0043f510     Log.obj
 0002:00000528       ??_C@_02PIMC@?$AN?6?$AA@   0043f528     Log.obj
 0002:0000052c       ??_7rdAcceptDialog@@6B@    0043f52c     rdAcceptDialog.obj
 0002:00000530       ??_C@_0P@JFGN@AutoReject?3?5?$CFu?$AA@ 0043f530     rdAcceptDialog.obj
 0002:00000540       ??_C@_0P@JJAH@AutoAccept?3?5?$CFu?$AA@ 0043f540     rdAcceptDialog.obj
 0002:00000550       ??_C@_0O@LGBM@AutoReject?3?$CFu?$AA@ 0043f550     rdAcceptDialog.obj
 0002:00000560       ??_C@_0O@NMKD@AutoAccept?3?$CFu?$AA@ 0043f560     rdAcceptDialog.obj
 0002:00000618       ??_C@_0DM@BLKL@h?3?2rd?2server?2rdadvancedpropertie@ 0043f618     rdAdvancedProperties.obj
 0002:00000654       ??_C@_0FB@MLFK@h?3?2rd?2server?2rdadvancedpropertie@ 0043f654     rdAdvancedProperties.obj
 0002:000006a8       ??_C@_0EL@GEPJ@h?3?2rd?2server?2rdadvancedpropertie@ 0043f6a8     rdAdvancedProperties.obj
 0002:000006f4       ??_C@_07IOPL@Default?$AA@  0043f6f4     rdAdvancedProperties.obj
 0002:000006fc       ??_C@_0M@GMAM@Winrd?5Error?$AA@ 0043f6fc     rdAdvancedProperties.obj
 0002:00000708       ??_C@_00A@?$AA@            0043f708     rdAdvancedProperties.obj
 0002:0000070c       ??_C@_0DM@PJJG@h?3?2rd?2server?2rdadvancedpropertie@ 0043f70c     rdAdvancedProperties.obj
 0002:00000748       ??_C@_0DI@BMLF@h?3?2rd?2server?2rdadvancedpropertie@ 0043f748     rdAdvancedProperties.obj
 0002:00000780       ??_C@_02MECO@?$CFd?$AA@    0043f780     rdAdvancedProperties.obj
 0002:00000784       ??_C@_0DA@FPEM@Winrd?3?5Default?5Local?5System?5Adva@ 0043f784     rdAdvancedProperties.obj
 0002:000007b4       ??_C@_0CI@DIAA@Winrd?3?5Current?5User?5Advanced?5Pro@ 0043f7b4     rdAdvancedProperties.obj
 0002:000007dc       ??_C@_0GC@EHIB@h?3?2rd?2server?2rdadvancedpropertie@ 0043f7dc     rdAdvancedProperties.obj
 0002:00000840       ??_C@_0EG@GDOM@h?3?2rd?2server?2rdadvancedpropertie@ 0043f840     rdAdvancedProperties.obj
 0002:00000888       ??_C@_0EF@JLMF@h?3?2rd?2server?2rdadvancedpropertie@ 0043f888     rdAdvancedProperties.obj
 0002:000008d0       ??_C@_0EI@ENCG@h?3?2rd?2server?2rdadvancedpropertie@ 0043f8d0     rdAdvancedProperties.obj
 0002:00000918       ??_C@_0EA@IHGN@h?3?2rd?2server?2rdadvancedpropertie@ 0043f918     rdAdvancedProperties.obj
 0002:00000958       ??_C@_09DJDB@AuthHosts?$AA@ 0043f958     rdAdvancedProperties.obj
 0002:00000964       ??_C@_0BA@FJFN@ConnectPriority?$AA@ 0043f964     rdAdvancedProperties.obj
 0002:00000974       ??_C@_0N@BELI@AuthRequired?$AA@ 0043f974     rdAdvancedProperties.obj
 0002:00000984       ??_C@_0O@HPLG@AllowLoopback?$AA@ 0043f984     rdAdvancedProperties.obj
 0002:00000994       ??_C@_0N@PBNL@LoopbackOnly?$AA@ 0043f994     rdAdvancedProperties.obj
 0002:000009a4       ??_C@_0BB@MEMK@EnableHTTPDaemon?$AA@ 0043f9a4     rdAdvancedProperties.obj
 0002:000009b8       ??_C@_0BA@PBCJ@EnableURLParams?$AA@ 0043f9b8     rdAdvancedProperties.obj
 0002:000009c8       ??_C@_0L@IJJI@DebugLevel?$AA@ 0043f9c8     rdAdvancedProperties.obj
 0002:000009d4       ??_C@_09KAG@DebugMode?$AA@ 0043f9d4     rdAdvancedProperties.obj
 0002:000009e0       ??_C@_0EF@GAPD@h?3?2rd?2server?2rdadvancedpropertie@ 0043f9e0     rdAdvancedProperties.obj
 0002:00000a28       ??_C@_06LDDL@SYSTEM?$AA@   0043fa28     rdAdvancedProperties.obj
 0002:00000a30       ??_C@_0BB@FKCJ@QueryAllowNoPass?$AA@ 0043fa30     rdAdvancedProperties.obj
 0002:00000a44       ??_C@_0M@NAME@QueryAccept?$AA@ 0043fa44     rdAdvancedProperties.obj
 0002:00000a50       ??_C@_0N@KBOF@QueryTimeout?$AA@ 0043fa50     rdAdvancedProperties.obj
 0002:00000a60       ??_C@_0N@BOBJ@QuerySetting?$AA@ 0043fa60     rdAdvancedProperties.obj
 0002:00000a70       ??_C@_0EN@PICP@h?3?2rd?2server?2rdadvancedpropertie@ 0043fa70     rdAdvancedProperties.obj
 0002:00000ac0       ??_C@_0EI@HOGJ@h?3?2rd?2server?2rdbuffer?4cpp?5?3?5GetR@ 0043fac0     rdBuffer.obj
 0002:00000b08       ??_C@_0DP@CBAL@h?3?2rd?2server?2rdbuffer?4cpp?5?3?5loca@ 0043fb08     rdBuffer.obj
 0002:00000b48       ??_C@_0EA@OACA@h?3?2rd?2server?2rdbuffer?4cpp?5?3?5unab@ 0043fb48     rdBuffer.obj
 0002:00000b88       ??_C@_0EA@FNIL@h?3?2rd?2server?2rdbuffer?4cpp?5?3?5unab@ 0043fb88     rdBuffer.obj
 0002:00000bc8       ??_C@_0EL@FLBO@h?3?2rd?2server?2rdbuffer?4cpp?5?3?5fast@ 0043fbc8     rdBuffer.obj
 0002:00000c14       ??_C@_0EC@KOPG@h?3?2rd?2server?2rdbuffer?4cpp?5?3?5unab@ 0043fc14     rdBuffer.obj
 0002:00000c58       ??_C@_0DE@LHNB@h?3?2rd?2server?2rdbuffer?4cpp?5?3?5SetC@ 0043fc58     rdBuffer.obj
 0002:00000c8c       ??_C@_0EC@LJLD@h?3?2rd?2server?2rdbuffer?4cpp?5?3?5clie@ 0043fc8c     rdBuffer.obj
 0002:00000cd0       ??_C@_0DH@HFHE@h?3?2rd?2server?2rdbuffer?4cpp?5?3?5unkn@ 0043fcd0     rdBuffer.obj
 0002:00000d08       ??_C@_0DH@MLDD@h?3?2rd?2server?2rdbuffer?4cpp?5?3?5Zlib@ 0043fd08     rdBuffer.obj
 0002:00000d40       ??_C@_0DF@DLMH@h?3?2rd?2server?2rdbuffer?4cpp?5?3?5Tigh@ 0043fd40     rdBuffer.obj
 0002:00000d78       ??_C@_0DE@OMGD@h?3?2rd?2server?2rdbuffer?4cpp?5?3?5Zlib@ 0043fd78     rdBuffer.obj
 0002:00000dac       ??_C@_0DH@PBBJ@h?3?2rd?2server?2rdbuffer?4cpp?5?3?5Hext@ 0043fdac     rdBuffer.obj
 0002:00000de4       ??_C@_0DF@EHFG@h?3?2rd?2server?2rdbuffer?4cpp?5?3?5CoRR@ 0043fde4     rdBuffer.obj
 0002:00000e1c       ??_C@_0DD@GEMN@h?3?2rd?2server?2rdbuffer?4cpp?5?3?5RRE?5@ 0043fe1c     rdBuffer.obj
 0002:00000e50       ??_C@_0DD@ENJO@h?3?2rd?2server?2rdbuffer?4cpp?5?3?5raw?5@ 0043fe50     rdBuffer.obj
 0002:00000e84       ??_C@_0EC@NIHN@h?3?2rd?2server?2rdbuffer?4cpp?5?3?5clea@ 0043fe84     rdBuffer.obj
 0002:00000ec8       ??_7rdClientThread@@6B@    0043fec8     rdClient.obj
 0002:00000ee0       ??_C@_0DM@JDGF@h?3?2rd?2server?2rdclient?4cpp?5?3?5prot@ 0043fee0     rdClient.obj
 0002:00000f1c       ??_C@_0P@KEED@RFB?5?$CF03d?4?$CF03d?6?$AA@ 0043ff1c     rdClient.obj
 0002:00000f2c       ??_C@_0EJ@GAJH@h?3?2rd?2server?2rdclient?4cpp?5?3?5conn@ 0043ff2c     rdClient.obj
 0002:00000f78       ??_C@_0EP@DBLD@h?3?2rd?2server?2rdclient?4cpp?5?3?5non?9@ 0043ff78     rdClient.obj
 0002:00000fc8       ??_C@_0DD@JEIN@h?3?2rd?2server?2rdclient?4cpp?5?3?5auth@ 0043ffc8     rdClient.obj
 0002:00000ffc       ??_C@_0CD@CIHK@Your?5connection?5has?5been?5rejecte@ 0043fffc     rdClient.obj
 0002:00001020       ??_C@_0DI@FFLB@h?3?2rd?2server?2rdclient?4cpp?5?3?5Clie@ 00440020     rdClient.obj
 0002:00001058       ??_C@_0CK@FFEO@Local?5loop?9back?5connections?5are?5@ 00440058     rdClient.obj
 0002:00001084       ??_C@_0EN@MBAC@h?3?2rd?2server?2rdclient?4cpp?5?3?5loop@ 00440084     rdClient.obj
 0002:000010d4       ??_C@_0HH@HALD@This?5server?5does?5not?5have?5a?5vali@ 004400d4     rdClient.obj
 0002:0000114c       ??_C@_0FA@BOIG@h?3?2rd?2server?2rdclient?4cpp?5?3?5no?5p@ 0044014c     rdClient.obj
 0002:0000119c       ??_C@_0DP@IBP@h?3?2rd?2server?2rdclient?4cpp?5?3?5clie@ 0044019c     rdClient.obj
 0002:000011dc       ??_C@_0DL@HJLM@h?3?2rd?2server?2rdclient?4cpp?5?3?5fail@ 004401dc     rdClient.obj
 0002:00001218       ??_C@_0DH@MFKO@h?3?2rd?2server?2rdclient?4cpp?5?3?5defa@ 00440218     rdClient.obj
 0002:00001250       ??_C@_0ED@HOCL@h?3?2rd?2server?2rdclient?4cpp?5?3?5Poin@ 00440250     rdClient.obj
 0002:00001294       ??_C@_0EB@KAPC@h?3?2rd?2server?2rdclient?4cpp?5?3?5Last@ 00440294     rdClient.obj
 0002:000012d8       ??_C@_0DP@CJEP@h?3?2rd?2server?2rdclient?4cpp?5?3?5imag@ 004402d8     rdClient.obj
 0002:00001318       ??_C@_0DN@DKFG@h?3?2rd?2server?2rdclient?4cpp?5?3?5comp@ 00440318     rdClient.obj
 0002:00001358       ??_C@_0EF@KHFG@h?3?2rd?2server?2rdclient?4cpp?5?3?5Full@ 00440358     rdClient.obj
 0002:000013a0       ??_C@_0EC@KJNJ@h?3?2rd?2server?2rdclient?4cpp?5?3?5X?9st@ 004403a0     rdClient.obj
 0002:000013e4       ??_C@_0DJ@BELD@h?3?2rd?2server?2rdclient?4cpp?5?3?5remo@ 004403e4     rdClient.obj
 0002:00001420       ??_C@_0DJ@KCOK@h?3?2rd?2server?2rdclient?4cpp?5?3?5sent@ 00440420     rdClient.obj
 0002:0000145c       ??_C@_05EEDE@Winrd?$AA@    0044045c     rdClient.obj
 0002:00001464       ??_C@_0DG@HCDE@h?3?2rd?2server?2rdclient?4cpp?5?3?5auth@ 00440464     rdClient.obj
 0002:0000149c       ??_C@_0DJ@DPLO@h?3?2rd?2server?2rdclient?4cpp?5?3?5nego@ 0044049c     rdClient.obj
 0002:000014d8       ??_C@_0EE@EIPF@h?3?2rd?2server?2rdclient?4cpp?5?3?5fail@ 004404d8     rdClient.obj
 0002:0000151c       ??_C@_0DM@HMPD@h?3?2rd?2server?2rdclient?4cpp?5?3?5clie@ 0044051c     rdClient.obj
 0002:00001558       ??_C@_0DF@HACG@h?3?2rd?2server?2rdclient?4cpp?5?3?5rdCl@ 00440558     rdClient.obj
 0002:00001590       ??_7rdClient@@6B@          00440590     rdClient.obj
 0002:000015e0       ??_C@_0CN@PNAO@h?3?2rd?2server?2rdclient?4cpp?5?3?5dele@ 004405e0     rdClient.obj
 0002:00001610       ??_C@_0CN@CLEH@h?3?2rd?2server?2rdclient?4cpp?5?3?5dele@ 00440610     rdClient.obj
 0002:00001640       ??_C@_0DG@NMIC@h?3?2rd?2server?2rdclient?4cpp?5?3?5?$HOrdC@ 00440640     rdClient.obj
 0002:00001678       ??_C@_09OOJM@?$DMunknown?$DO?$AA@ 00440678     rdClient.obj
 0002:00001684       ??_C@_0BD@HCKF@ConsoleWindowClass?$AA@ 00440684     rdClient.obj
 0002:00001698       ??_C@_03EBME@tty?$AA@      00440698     rdClient.obj
 0002:0000169c       ??_C@_0DC@HJIP@h?3?2rd?2server?2rdpasswd?4h?5?3?5PASSWD@ 0044069c     rdClient.obj
 0002:000016d0       ??_C@_0EC@KCE@h?3?2rd?2server?2rdclient?4cpp?5?3?5fail@ 004406d0     rdClient.obj
 0002:00001714       ??_C@_0BK@IELL@h?3?2rd?2server?2rdclient?4cpp?$AA@ 00440714     rdClient.obj
 0002:00001730       ??_7rdConnDialog@@6B@      00440730     rdConnDialog.obj
 0002:00001734       ??_C@_0CJ@LAGJ@Failed?5to?5connect?5to?5listening?5r@ 00440734     rdConnDialog.obj
 0002:00001760       ??_C@_0BE@LEOA@Outgoing?5Connection?$AA@ 00440760     rdConnDialog.obj
 0002:00001774       ??_C@_0BL@OIDF@rdHooks?4CopyRect?4WindowPos?$AA@ 00440774     rdDesktop.obj
 0002:00001790       ?szDesktopSink@@3QBDB      00440790     rdDesktop.obj
 0002:000017a4       ??_C@_0BG@CNBL@Winrd?4Update?4DrawRect?$AA@ 004407a4     rdDesktop.obj
 0002:000017bc       ??_C@_0BG@NCLB@Winrd?4Update?4CopyRect?$AA@ 004407bc     rdDesktop.obj
 0002:000017d4       ??_C@_0BD@JPLA@Winrd?4Update?4Mouse?$AA@ 004407d4     rdDesktop.obj
 0002:000017e8       ??_C@_0DN@JLAD@h?3?2rd?2server?2rddesktop?4cpp?5?3?5qui@ 004407e8     rdDesktop.obj
 0002:00001828       ??_C@_0DB@GOGB@h?3?2rd?2server?2rddesktop?4cpp?5?3?5upd@ 00440828     rdDesktop.obj
 0002:0000185c       ??_C@_0FB@DNAH@h?3?2rd?2server?2rddesktop?4cpp?5?3?5scr@ 0044085c     rdDesktop.obj
 0002:000018b0       ??_C@_0DO@OBEC@h?3?2rd?2server?2rddesktop?4cpp?5?3?5SCR@ 004408b0     rdDesktop.obj
 0002:000018f0       ??_C@_0DO@LOMM@h?3?2rd?2server?2rddesktop?4cpp?5?3?5SCR@ 004408f0     rdDesktop.obj
 0002:00001930       ??_C@_0EB@FFMJ@h?3?2rd?2server?2rddesktop?4cpp?5?3?5fai@ 00440930     rdDesktop.obj
 0002:00001974       ??_C@_0DO@BNNI@h?3?2rd?2server?2rddesktop?4cpp?5?3?5fai@ 00440974     rdDesktop.obj
 0002:000019b4       ??_C@_0EF@JKPC@h?3?2rd?2server?2rddesktop?4cpp?5?3?5dis@ 004409b4     rdDesktop.obj
 0002:000019fc       ??_C@_0DF@MIDA@h?3?2rd?2server?2rddesktop?4cpp?5?3?5kil@ 004409fc     rdDesktop.obj
 0002:00001a34       ??_C@_0DG@DKAO@h?3?2rd?2server?2rddesktop?4cpp?5?3?5Glo@ 00440a34     rdDesktop.obj
 0002:00001a6c       ??_C@_0DJ@KCE@h?3?2rd?2server?2rddesktop?4cpp?5?3?5fai@ 00440a6c     rdDesktop.obj
 0002:00001aa8       ??_C@_0DF@LHBM@h?3?2rd?2server?2rddesktop?4cpp?5?3?5fai@ 00440aa8     rdDesktop.obj
 0002:00001ae0       ??_C@_0DF@LNIC@h?3?2rd?2server?2rddesktop?4cpp?5?3?5fai@ 00440ae0     rdDesktop.obj
 0002:00001b18       ??_C@_0DB@GMFI@h?3?2rd?2server?2rddesktop?4cpp?5?3?5fai@ 00440b18     rdDesktop.obj
 0002:00001b4c       ??_C@_0DC@MJNB@h?3?2rd?2server?2rddesktop?4cpp?5?3?5fai@ 00440b4c     rdDesktop.obj
 0002:00001b80       ??_C@_0BI@ILAB@WindowsScreenSaverClass?$AA@ 00440b80     rdDesktop.obj
 0002:00001b98       ??_C@_0DC@OGLG@h?3?2rd?2server?2rddesktop?4cpp?5?3?5Kil@ 00440b98     rdDesktop.obj
 0002:00001bcc       ??_C@_0N@HKMB@Screen?9saver?$AA@ 00440bcc     rdDesktop.obj
 0002:00001bdc       ??_C@_0DB@BPEB@h?3?2rd?2server?2rddesktop?4cpp?5?3?5Kil@ 00440bdc     rdDesktop.obj
 0002:00001c10       ??_C@_0FB@MEBE@h?3?2rd?2server?2rddesktop?4cpp?5?3?5SCR@ 00440c10     rdDesktop.obj
 0002:00001c64       ??_C@_09OHDA@ResHeight?$AA@ 00440c64     rdDesktop.obj
 0002:00001c70       ??_C@_08DLFG@ResWidth?$AA@ 00440c70     rdDesktop.obj
 0002:00001c7c       ??_C@_0BE@OONE@Software?2ORL?2Winrd3?$AA@ 00440c7c     rdDesktop.obj
 0002:00001c90       ??_C@_0FE@DDKK@h?3?2rd?2server?2rddesktop?4cpp?5?3?5SCR@ 00440c90     rdDesktop.obj
 0002:00001ce4       ??_C@_0EP@OLAK@h?3?2rd?2server?2rddesktop?4cpp?5?3?5SCR@ 00440ce4     rdDesktop.obj
 0002:00001d34       ??_C@_0DJ@KCKO@h?3?2rd?2server?2rddesktop?4cpp?5?3?5SCR@ 00440d34     rdDesktop.obj
 0002:00001d70       ??_C@_0BG@PIEO@DisableFullWindowDrag?$AA@ 00440d70     rdDesktop.obj
 0002:00001d88       ??_C@_0BF@HGKD@DisableFontSmoothing?$AA@ 00440d88     rdDesktop.obj
 0002:00001da0       ??_C@_0BB@IDHI@DisableWallpaper?$AA@ 00440da0     rdDesktop.obj
 0002:00001db4       ??_C@_0P@DCDH@DisablePattern?$AA@ 00440db4     rdDesktop.obj
 0002:00001dc4       ??_C@_0FA@LJCH@h?3?2rd?2server?2rddesktop?4cpp?5?3?5SCR@ 00440dc4     rdDesktop.obj
 0002:00001e14       ??_C@_0EN@NDIE@h?3?2rd?2server?2rddesktop?4cpp?5?3?5SCR@ 00440e14     rdDesktop.obj
 0002:00001e64       ??_C@_0EI@KJGD@h?3?2rd?2server?2rddesktop?4cpp?5?3?5SCR@ 00440e64     rdDesktop.obj
 0002:00001eac       ??_C@_0EG@KDHM@h?3?2rd?2server?2rddesktop?4cpp?5?3?5SCR@ 00440eac     rdDesktop.obj
 0002:00001ef4       ??_C@_0EF@PKAJ@h?3?2rd?2server?2rddesktop?4cpp?5?3?5SCR@ 00440ef4     rdDesktop.obj
 0002:00001f3c       ??_C@_0BA@BEBJ@OptimizeDesktop?$AA@ 00440f3c     rdDesktop.obj
 0002:00001f4c       ??_C@_0BA@NFBD@DragFullWindows?$AA@ 00440f4c     rdDesktop.obj
 0002:00001f5c       ??_C@_07NNN@Pattern?$AA@   00440f5c     rdDesktop.obj
 0002:00001f64       ??_C@_0O@MCJK@FontSmoothing?$AA@ 00440f64     rdDesktop.obj
 0002:00001f74       ??_C@_09CLCB@Wallpaper?$AA@ 00440f74     rdDesktop.obj
 0002:00001f80       ??_C@_0BG@EBPD@Control?5Panel?2Desktop?$AA@ 00440f80     rdDesktop.obj
 0002:00001f98       ??_C@_0GJ@DJPK@rdDesktop?5?3?5current?5display?5is?5P@ 00440f98     rdDesktop.obj
 0002:00002004       ??_C@_0FA@LBOB@h?3?2rd?2server?2rddesktop?4cpp?5?3?5num@ 00441004     rdDesktop.obj
 0002:00002054       ??_C@_0EA@GHLB@h?3?2rd?2server?2rddesktop?4cpp?5?3?5DBG@ 00441054     rdDesktop.obj
 0002:00002094       ??_C@_0EB@BCCF@h?3?2rd?2server?2rddesktop?4cpp?5?3?5DBG@ 00441094     rdDesktop.obj
 0002:000020d8       ??_C@_0DA@CFNI@h?3?2rd?2server?2rddesktop?4cpp?5?3?5got@ 004410d8     rdDesktop.obj
 0002:00002108       ??_C@_0DK@JKLO@h?3?2rd?2server?2rddesktop?4cpp?5?3?5Get@ 00441108     rdDesktop.obj
 0002:00002144       ??_C@_0DK@KBEB@h?3?2rd?2server?2rddesktop?4cpp?5?3?5Get@ 00441144     rdDesktop.obj
 0002:00002180       ??_C@_0DE@OGGC@h?3?2rd?2server?2rddesktop?4cpp?5?3?5cre@ 00441180     rdDesktop.obj
 0002:000021b4       ??_C@_0EH@CCP@h?3?2rd?2server?2rddesktop?4cpp?5?3?5fai@ 004411b4     rdDesktop.obj
 0002:000021fc       ??_C@_0GK@KBAP@rdDesktop?5?3?5memory?5device?5doesn?8@ 004411fc     rdDesktop.obj
 0002:00002268       ??_C@_0DL@NOJ@h?3?2rd?2server?2rddesktop?4cpp?5?3?5Get@ 00441268     rdDesktop.obj
 0002:000022a4       ??_C@_0GE@EGMN@rdDesktop?5?3?5root?5device?5doesn?8t?5@ 004412a4     rdDesktop.obj
 0002:00002308       ??_C@_0DI@NONE@h?3?2rd?2server?2rddesktop?4cpp?5?3?5Bit@ 00441308     rdDesktop.obj
 0002:00002340       ??_C@_0EE@DKNA@h?3?2rd?2server?2rddesktop?4cpp?5?3?5Cre@ 00441340     rdDesktop.obj
 0002:00002384       ??_C@_0DM@FKGO@h?3?2rd?2server?2rddesktop?4cpp?5?3?5bit@ 00441384     rdDesktop.obj
 0002:000023c0       ??_C@_0DH@GPKL@h?3?2rd?2server?2rddesktop?4cpp?5?3?5Get@ 004413c0     rdDesktop.obj
 0002:000023f8       ??_C@_0EO@FKDC@h?3?2rd?2server?2rddesktop?4cpp?5?3?5DBG@ 004413f8     rdDesktop.obj
 0002:00002448       ??_C@_0EH@KKFO@h?3?2rd?2server?2rddesktop?4cpp?5?3?5DBG@ 00441448     rdDesktop.obj
 0002:00002490       ??_C@_0EK@OBIG@h?3?2rd?2server?2rddesktop?4cpp?5?3?5DBG@ 00441490     rdDesktop.obj
 0002:000024dc       ??_C@_0DI@BAEF@unsupported?5truecolour?5pixel?5for@ 004414dc     rdDesktop.obj
 0002:00002514       ??_C@_0EF@DAM@h?3?2rd?2server?2rddesktop?4cpp?5?3?5no?5@ 00441514     rdDesktop.obj
 0002:0000255c       ??_C@_0DF@MDLD@h?3?2rd?2server?2rddesktop?4cpp?5?3?5ini@ 0044155c     rdDesktop.obj
 0002:00002594       ??_C@_0EB@MAJM@h?3?2rd?2server?2rddesktop?4cpp?5?3?5war@ 00441594     rdDesktop.obj
 0002:000025d8       ??_C@_0DG@JFBI@h?3?2rd?2server?2rddesktop?4cpp?5?3?5Sel@ 004415d8     rdDesktop.obj
 0002:00002610       ??_C@_0DG@IJMF@h?3?2rd?2server?2rddesktop?4cpp?5?3?5Cre@ 00441610     rdDesktop.obj
 0002:00002648       ??_C@_0EA@BLJO@h?3?2rd?2server?2rddesktop?4cpp?5?3?5Get@ 00441648     rdDesktop.obj
 0002:00002688       ??_C@_0DH@NPMI@h?3?2rd?2server?2rddesktop?4cpp?5?3?5err@ 00441688     rdDesktop.obj
 0002:000026c0       ??_C@_0DF@OMMH@h?3?2rd?2server?2rddesktop?4cpp?5?3?5Cre@ 004416c0     rdDesktop.obj
 0002:000026f8       ??_C@_0DP@HGFI@h?3?2rd?2server?2rddesktop?4cpp?5?3?5ena@ 004416f8     rdDesktop.obj
 0002:00002738       ??_C@_0FE@BIBO@h?3?2rd?2server?2rddesktop?4cpp?5?3?5fai@ 00441738     rdDesktop.obj
 0002:0000278c       ??_C@_0DK@CCHK@h?3?2rd?2server?2rddesktop?4cpp?5?3?5una@ 0044178c     rdDesktop.obj
 0002:000027c8       ??_C@_0EE@JGKO@h?3?2rd?2server?2rddesktop?4cpp?5?3?5att@ 004417c8     rdDesktop.obj
 0002:0000280c       ??_C@_0DK@LLDD@h?3?2rd?2server?2rddesktop?4cpp?5?3?5ini@ 0044180c     rdDesktop.obj
 0002:00002848       ??_7rdDesktopThread@@6B@   00441848     rdDesktop.obj
 0002:0000285c       ??_C@_0CB@OJIK@rdDesktop?5?3?5y?5?$DN?5?$CFd?0?5height?5?$DN?5?$CFd?6@ 0044185c     rdDesktop.obj
 0002:00002880       ??_C@_0CP@LLLL@rdDesktop?5?3?5thread?5?$DN?5?$CFd?0?5DC?5?$DN?5?$CFd@ 00441880     rdDesktop.obj
 0002:000028b0       ??_C@_0CG@GJMP@rdDesktop?5?3?5?$FL1?$FN?5GetDIBits?5failed@ 004418b0     rdDesktop.obj
 0002:000028d8       ??_7rdEncodeCoRRE@@6B@     004418d8     rdEncodeCoRRE.obj
 0002:00002908       ??_C@_0BJ@FMIK@?$CFs?3?5unusual?5colour?5?$DN?5?$CFd?6?$AA@ 00441908     rdEncodeCoRRE.obj
 0002:00002924       ??_C@_0M@EMIE@getBgColour?$AA@ 00441924     rdEncodeCoRRE.obj
 0002:00002930       ??_C@_0BG@BABI@getBgColour?3?5bpp?5?$CFd?$DP?6?$AA@ 00441930     rdEncodeCoRRE.obj
 0002:00002948       ??_C@_05IPGN@CoRRE?$AA@    00441948     rdEncodeCoRRE.obj
 0002:00002950       ??_7rdEncodeHexT@@6B@      00441950     rdEncodeHexT.obj
 0002:00002980       ??_C@_07JMPJ@Hextile?$AA@  00441980     rdEncodeHexT.obj
 0002:00002998       ??_7rdEncoder@@6B@         00441998     rdEncoder.obj
 0002:000029bc       ??_C@_0DM@CIMG@h?3?2rd?2server?2rdencoder?4cpp?5?3?5?$CFs?5@ 004419bc     rdEncoder.obj
 0002:000029f8       ??_C@_0FK@IGBD@h?3?2rd?2server?2rdencoder?4cpp?5?3?5?$CFs?5@ 004419f8     rdEncoder.obj
 0002:00002a54       ??_C@_0EA@JNCN@h?3?2rd?2server?2rdencoder?4cpp?5?3?5fai@ 00441a54     rdEncoder.obj
 0002:00002a94       ??_C@_0DM@PLHD@h?3?2rd?2server?2rdencoder?4cpp?5?3?5gen@ 00441a94     rdEncoder.obj
 0002:00002ad0       ??_C@_0DN@CLKP@h?3?2rd?2server?2rdencoder?4cpp?5?3?5gen@ 00441ad0     rdEncoder.obj
 0002:00002b10       ??_C@_0DM@NGFA@h?3?2rd?2server?2rdencoder?4cpp?5?3?5rem@ 00441b10     rdEncoder.obj
 0002:00002b4c       ??_C@_0CO@BFFK@h?3?2rd?2server?2rdencoder?4cpp?5?3?5tri@ 00441b4c     rdEncoder.obj
 0002:00002b7c       ??_C@_0CO@EJJJ@h?3?2rd?2server?2rdencoder?4cpp?5?3?5sin@ 00441b7c     rdEncoder.obj
 0002:00002bac       ??_C@_0DG@ODEJ@h?3?2rd?2server?2rdencoder?4cpp?5?3?5no?5@ 00441bac     rdEncoder.obj
 0002:00002be4       ??_C@_0EO@JJL@h?3?2rd?2server?2rdencoder?4cpp?5?3?5usi@ 00441be4     rdEncoder.obj
 0002:00002c34       ??_C@_0EB@GBPB@h?3?2rd?2server?2rdencoder?4cpp?5?3?5unk@ 00441c34     rdEncoder.obj
 0002:00002c78       ??_C@_0FJ@EAAI@h?3?2rd?2server?2rdencoder?4cpp?5?3?5loc@ 00441c78     rdEncoder.obj
 0002:00002cd4       ??_C@_0EL@PGLP@h?3?2rd?2server?2rdencoder?4cpp?5?3?5no?5@ 00441cd4     rdEncoder.obj
 0002:00002d20       ??_C@_0EK@MCOJ@h?3?2rd?2server?2rdencoder?4cpp?5?3?5onl@ 00441d20     rdEncoder.obj
 0002:00002d6c       ??_C@_0EL@PLCF@h?3?2rd?2server?2rdencoder?4cpp?5?3?5onl@ 00441d6c     rdEncoder.obj
 0002:00002db8       ??_C@_0FC@NHLI@h?3?2rd?2server?2rdencoder?4cpp?5?3?5onl@ 00441db8     rdEncoder.obj
 0002:00002e0c       ??_C@_0FG@GJOG@h?3?2rd?2server?2rdencoder?4cpp?5?3?5onl@ 00441e0c     rdEncoder.obj
 0002:00002e64       ??_C@_0DK@BCCJ@h?3?2rd?2server?2rdencoder?4cpp?5?3?5Set@ 00441e64     rdEncoder.obj
 0002:00002ea0       ??_C@_0EF@HGCG@h?3?2rd?2server?2rdencoder?4cpp?5?3?5rdD@ 00441ea0     rdEncoder.obj
 0002:00002ee8       ??_C@_0DG@LBDL@h?3?2rd?2server?2rdencoder?4cpp?5?3?5Get@ 00441ee8     rdEncoder.obj
 0002:00002f20       ??_C@_0DP@PKKH@h?3?2rd?2server?2rdencoder?4cpp?5?3?5inc@ 00441f20     rdEncoder.obj
 0002:00002f60       ??_C@_0DN@MNLH@h?3?2rd?2server?2rdencoder?4cpp?5?3?5Get@ 00441f60     rdEncoder.obj
 0002:00002fa0       ??_C@_0DM@JGHN@h?3?2rd?2server?2rdencoder?4cpp?5?3?5cur@ 00441fa0     rdEncoder.obj
 0002:00002fdc       ??_C@_0DE@IFIG@h?3?2rd?2server?2rdencoder?4cpp?5?3?5Get@ 00441fdc     rdEncoder.obj
 0002:00003010       ??_C@_0DF@LJIM@h?3?2rd?2server?2rdencoder?4cpp?5?3?5cur@ 00442010     rdEncoder.obj
 0002:00003048       ??_C@_03GCAF@Raw?$AA@      00442048     rdEncoder.obj
 0002:0000304c       ??_7rdEncodeRRE@@6B@       0044204c     rdEncodeRRE.obj
 0002:00003070       ??_C@_03EILP@RRE?$AA@      00442070     rdEncodeRRE.obj
 0002:00003078       ?m_conf@rdEncodeTight@@1QBUTIGHT_CONF@@B 00442078     rdEncodeTight.obj
 0002:000032a8       ??_7rdEncodeTight@@6B@     004422a8     rdEncodeTight.obj
 0002:000032cc       ??_C@_0DJ@MNNN@h?3?2rd?2server?2rdencodetight?4cpp?5?3@ 004422cc     rdEncodeTight.obj
 0002:00003308       ??_C@_0EF@NFOH@h?3?2rd?2server?2rdencodetight?4cpp?5?3@ 00442308     rdEncodeTight.obj
 0002:00003350       ??_C@_0EL@FGJC@h?3?2rd?2server?2rdencodetight?4cpp?5?3@ 00442350     rdEncodeTight.obj
 0002:0000339c       ??_C@_0EE@LPDI@h?3?2rd?2server?2rdencodetight?4cpp?5?3@ 0044239c     rdEncodeTight.obj
 0002:000033e0       ??_C@_05IOHI@1?41?44?$AA@  004423e0     rdEncodeTight.obj
 0002:000033e8       ??_C@_0EK@DOON@h?3?2rd?2server?2rdencodetight?4cpp?5?3@ 004423e8     rdEncodeTight.obj
 0002:00003434       ??_C@_05DNCA@Tight?$AA@    00442434     rdEncodeTight.obj
 0002:0000343c       ??_7rdEncodeZlib@@6B@      0044243c     rdEncodeZlib.obj
 0002:00003464       ??_C@_0DO@LONA@h?3?2rd?2server?2rdencodezlib?4cpp?5?3?5@ 00442464     rdEncodeZlib.obj
 0002:000034a4       ??_C@_0ED@PGJJ@h?3?2rd?2server?2rdencodezlib?4cpp?5?3?5@ 004424a4     rdEncodeZlib.obj
 0002:000034e8       ??_C@_0EJ@HFLA@h?3?2rd?2server?2rdencodezlib?4cpp?5?3?5@ 004424e8     rdEncodeZlib.obj
 0002:00003534       ??_C@_046Zlib?$AA@         00442534     rdEncodeZlib.obj
 0002:0000353c       ??_7rdEncodeZlibHex@@6B@   0044253c     rdEncodeZlibHex.obj
 0002:00003570       ??_C@_0EB@JHCB@h?3?2rd?2server?2rdencodezlibhex?4cpp@ 00442570     rdEncodeZlibHex.obj
 0002:000035b4       ??_C@_0EG@HJGL@h?3?2rd?2server?2rdencodezlibhex?4cpp@ 004425b4     rdEncodeZlibHex.obj
 0002:000035fc       ??_C@_0EM@JBCN@h?3?2rd?2server?2rdencodezlibhex?4cpp@ 004425fc     rdEncodeZlibHex.obj
 0002:00003648       ??_C@_07HGKK@ZlibHex?$AA@  00442648     rdEncodeZlibHex.obj
 0002:00003a5c       ??_C@_0CA@EGCN@?1HTTPConnectSocketFactory?4class?$AA@ 00442a5c     rdHTTPConnect.obj
 0002:00003a7c       ??_C@_0BJ@HBKM@?1HTTPConnectSocket?4class?$AA@ 00442a7c     rdHTTPConnect.obj
 0002:00003a98       ??_C@_0BF@EOGL@?1SocketFactory?4class?$AA@ 00442a98     rdHTTPConnect.obj
 0002:00003ab0       ??_C@_0BE@NODC@?1ReloginPanel?4class?$AA@ 00442ab0     rdHTTPConnect.obj
 0002:00003ac4       ??_C@_0BH@MOMH@?1SessionRecorder?4class?$AA@ 00442ac4     rdHTTPConnect.obj
 0002:00003adc       ??_C@_0BG@NIEN@?1RecordingFrame?4class?$AA@ 00442adc     rdHTTPConnect.obj
 0002:00003af4       ??_C@_0BD@GGEP@?1ButtonPanel?4class?$AA@ 00442af4     rdHTTPConnect.obj
 0002:00003b08       ??_C@_0BA@JPBG@?1rdViewer?4class?$AA@ 00442b08     rdHTTPConnect.obj
 0002:00003b18       ??_C@_0BA@ONLD@?1rdCanvas?4class?$AA@ 00442b18     rdHTTPConnect.obj
 0002:00003b28       ??_C@_0BA@CBN@?1RfbProto?4class?$AA@ 00442b28     rdHTTPConnect.obj
 0002:00003b38       ??_C@_0BE@LFMM@?1OptionsFrame?4class?$AA@ 00442b38     rdHTTPConnect.obj
 0002:00003b4c       ??_C@_0BB@BHKF@?1DesCipher?4class?$AA@ 00442b4c     rdHTTPConnect.obj
 0002:00003b60       ??_C@_0BG@CDCM@?1ClipboardFrame?4class?$AA@ 00442b60     rdHTTPConnect.obj
 0002:00003b78       ??_C@_09MANA@JavaClass?$AA@ 00442b78     rdHTTPConnect.obj
 0002:00003b84       ??_C@_0BB@MLIA@?1AuthPanel?4class?$AA@ 00442b84     rdHTTPConnect.obj
 0002:00003b98       ??_C@_0M@BOAP@JavaArchive?$AA@ 00442b98     rdHTTPConnect.obj
 0002:00003ba4       ??_C@_0O@COM@?1rdViewer?4jar?$AA@ 00442ba4     rdHTTPConnect.obj
 0002:00003bb4       ??_C@_0DO@GNGM@h?3?2rd?2server?2rdhttpconnect?4cpp?5?3@ 00442bb4     rdHTTPConnect.obj
 0002:00003bf4       ??_C@_0DN@EKLB@h?3?2rd?2server?2rdhttpconnect?4cpp?5?3@ 00442bf4     rdHTTPConnect.obj
 0002:00003c34       ??_C@_0DJ@DBCE@h?3?2rd?2server?2rdhttpconnect?4cpp?5?3@ 00442c34     rdHTTPConnect.obj
 0002:00003c70       ??_C@_0DC@BHAM@h?3?2rd?2server?2rdhttpconnect?4cpp?5?3@ 00442c70     rdHTTPConnect.obj
 0002:00003ca4       ??_C@_0DM@GCBL@h?3?2rd?2server?2rdhttpconnect?4cpp?5?3@ 00442ca4     rdHTTPConnect.obj
 0002:00003ce0       ??_C@_0CM@HGML@h?3?2rd?2server?2rdhttpconnect?4cpp?5?3@ 00442ce0     rdHTTPConnect.obj
 0002:00003d0c       ??_C@_0DO@BANP@h?3?2rd?2server?2rdhttpconnect?4cpp?5?3@ 00442d0c     rdHTTPConnect.obj
 0002:00003d4c       ??_C@_0DE@JKAL@h?3?2rd?2server?2rdhttpconnect?4cpp?5?3@ 00442d4c     rdHTTPConnect.obj
 0002:00003d80       ??_C@_0EB@LNAO@h?3?2rd?2server?2rdhttpconnect?4cpp?5?3@ 00442d80     rdHTTPConnect.obj
 0002:00003dc4       ??_C@_0DH@OPMF@h?3?2rd?2server?2rdhttpconnect?4cpp?5?3@ 00442dc4     rdHTTPConnect.obj
 0002:00003dfc       ??_C@_0DE@JOJG@h?3?2rd?2server?2rdhttpconnect?4cpp?5?3@ 00442dfc     rdHTTPConnect.obj
 0002:00003e30       ??_C@_0N@DFAP@GET?5?$CFs?5HTTP?1?$AA@ 00442e30     rdHTTPConnect.obj
 0002:00003e40       ??_C@_0CE@JDMM@?5?5?5?5?5?5?$DMPARAM?5NAME?$DN?$CC?$CFs?$CC?5VALUE?$DN?$CC?$CFs@ 00442e40     rdHTTPConnect.obj
 0002:00003e64       ??_C@_0DO@EBDD@h?3?2rd?2server?2rdhttpconnect?4cpp?5?3@ 00442e64     rdHTTPConnect.obj
 0002:00003ea4       ??_C@_0DI@LDMB@h?3?2rd?2server?2rdhttpconnect?4cpp?5?3@ 00442ea4     rdHTTPConnect.obj
 0002:00003edc       ??_C@_0DN@GGOO@h?3?2rd?2server?2rdhttpconnect?4cpp?5?3@ 00442edc     rdHTTPConnect.obj
 0002:00003f1c       ??_7rdHTTPConnectThread@@6B@ 00442f1c     rdHTTPConnect.obj
 0002:00003f38       ??_7rdHTTPConnect@@6B@     00442f38     rdHTTPConnect.obj
 0002:00003f3c       ??_7rdHTTPListenThread@@6B@ 00442f3c     rdHTTPConnect.obj
 0002:00003f4c       ??_C@_09FBHK@localhost?$AA@ 00442f4c     rdHTTPConnect.obj
 0002:00003f74       ??_C@_0DK@NGEA@keyboard?5key?3?5keysym?5?$CFd?$CI0x?$CFx?$CJ?5vk@ 00442f74     rdKeymap.obj
 0002:00003fb0       ??_C@_0BM@HLDD@ignoring?5unknown?5keysym?5?$CFd?6?$AA@ 00442fb0     rdKeymap.obj
 0002:00003fcc       ??_C@_0DC@CDNB@latin?91?5key?3?5keysym?5?$CFd?$CI0x?$CFx?$CJ?5vkC@ 00442fcc     rdKeymap.obj
 0002:00004000       ??_C@_0CJ@PLFB@ignoring?5unrecognised?5Latin?91?5ke@ 00443000     rdKeymap.obj
 0002:0000402c       ??_C@_0O@LE@fake?5?$CFd?5down?6?$AA@ 0044302c     rdKeymap.obj
 0002:0000403c       ??_C@_0M@IJGN@fake?5?$CFd?5up?6?$AA@ 0044303c     rdKeymap.obj
 0002:00004048       ??_C@_0CP@HICN@h?3?2rd?2server?2rdkeymap?4cpp?5?3?5new?5@ 00443048     rdKeymap.obj
 0002:00004078       ??_C@_0DJ@DACJ@h?3?2rd?2server?2rdkeymap?4cpp?5?3?5sets@ 00443078     rdKeymap.obj
 0002:000040b4       ??_C@_02HAO@up?$AA@        004430b4     rdKeymap.obj
 0002:000040b8       ??_C@_04KKMF@down?$AA@     004430b8     rdKeymap.obj
 0002:000040c0       ??_C@_0BA@NGNB@Winrd?5Tray?5Icon?$AA@ 004430c0     rdMenu.obj
 0002:000040d0       ??_C@_0BL@EOIE@Winrd?4Properties?4User?4Show?$AA@ 004430d0     rdMenu.obj
 0002:000040ec       ??_C@_0BO@OCFD@Winrd?4Properties?4Default?4Show?$AA@ 004430ec     rdMenu.obj
 0002:0000410c       ??_C@_0BE@GLAH@Winrd?4AboutBox?4Show?$AA@ 0044310c     rdMenu.obj
 0002:00004120       ??_C@_0BM@MNDB@Winrd?4ServiceHelper?4Message?$AA@ 00443120     rdMenu.obj
 0002:0000413c       ??_C@_0BF@MGFE@Winrd?4Reload?4Message?$AA@ 0044313c     rdMenu.obj
 0002:00004154       ??_C@_0BI@COML@Winrd?4AddClient?4Message?$AA@ 00443154     rdMenu.obj
 0002:0000416c       ??_C@_0BM@BGEN@Winrd?4RemoveClients?4Message?$AA@ 0044316c     rdMenu.obj
 0002:00004188       ??_C@_0EC@IPEB@h?3?2rd?2server?2rdmenu?4cpp?5?3?5unable@ 00443188     rdMenu.obj
 0002:000041cc       ??_C@_0DF@DPLE@h?3?2rd?2server?2rdmenu?4cpp?5?3?5unable@ 004431cc     rdMenu.obj
 0002:00004204       ??_C@_02GIEM@?0?5?$AA@     00443204     rdMenu.obj
 0002:00004208       ??_C@_03IEOO@?$CFd?4?$AA@  00443208     rdMenu.obj
 0002:0000420c       ??_C@_0BH@MBPK@IP?5address?5unavailable?$AA@ 0044320c     rdMenu.obj
 0002:00004224       ??_C@_0BG@PEOK@Host?5name?5unavailable?$AA@ 00443224     rdMenu.obj
 0002:0000423c       ??_C@_0DD@GPLE@h?3?2rd?2server?2rdmenu?4cpp?5?3?5unable@ 0044323c     rdMenu.obj
 0002:00004270       ??_C@_0CO@GILM@h?3?2rd?2server?2rdmenu?4cpp?5?3?5openin@ 00443270     rdMenu.obj
 0002:000042a0       ??_C@_0CO@BNBN@h?3?2rd?2server?2rdmenu?4cpp?5?3?5tray?5i@ 004432a0     rdMenu.obj
 0002:000042d0       ??_C@_0O@FAIN@Not?5listening?$AA@ 004432d0     rdMenu.obj
 0002:000042e0       ??_C@_0BB@DMD@?5?$CINot?5listening?$CJ?$AA@ 004432e0     rdMenu.obj
 0002:000042f4       ??_C@_03DMDD@?5?9?5?$AA@   004432f4     rdMenu.obj
 0002:000042f8       ??_C@_0DB@JJKO@h?3?2rd?2server?2rdmenu?4cpp?5?3?5user?5n@ 004432f8     rdMenu.obj
 0002:0000432c       ??_C@_0DK@ILFF@h?3?2rd?2server?2rdmenu?4cpp?5?3?5userna@ 0044332c     rdMenu.obj
 0002:00004368       ??_C@_0CJ@PMLM@h?3?2rd?2server?2rdmenu?4cpp?5?3?5WM_END@ 00443368     rdMenu.obj
 0002:00004394       ??_C@_0CO@NDGF@h?3?2rd?2server?2rdmenu?4cpp?5?3?5WM_QUE@ 00443394     rdMenu.obj
 0002:000043c4       ??_C@_0DE@MNIO@h?3?2rd?2server?2rdmenu?4cpp?5?3?5quitti@ 004433c4     rdMenu.obj
 0002:000043f8       ??_C@_0DA@MOJD@h?3?2rd?2server?2rdmenu?4cpp?5?3?5no?5sub@ 004433f8     rdMenu.obj
 0002:00004428       ??_C@_0DK@MFHJ@h?3?2rd?2server?2rdmenu?4cpp?5?3?5show?5u@ 00443428     rdMenu.obj
 0002:00004464       ??_C@_0DN@POKE@h?3?2rd?2server?2rdmenu?4cpp?5?3?5show?5d@ 00443464     rdMenu.obj
 0002:000044a4       ??_C@_0EB@LPFB@h?3?2rd?2server?2rdmenu?4cpp?5?3?5Active@ 004434a4     rdMenu.obj
 0002:000044e8       ??_C@_0DP@OJEJ@h?3?2rd?2server?2rdmenu?4cpp?5?3?5unable@ 004434e8     rdMenu.obj
 0002:00004528       ??_C@_0EA@OPEE@h?3?2rd?2server?2rdmenu?4cpp?5?3?5attemp@ 00443528     rdMenu.obj
 0002:00004568       ??_C@_0EF@ICAG@h?3?2rd?2server?2rdmenu?4cpp?5?3?5unable@ 00443568     rdMenu.obj
 0002:000045b0       ??_C@_0EF@FDKG@h?3?2rd?2server?2rdmenu?4cpp?5?3?5unable@ 004435b0     rdMenu.obj
 0002:000045f8       ??_C@_0CN@NIBC@h?3?2rd?2server?2rdmenu?4cpp?5?3?5KillAc@ 004435f8     rdMenu.obj
 0002:00004628       ??_C@_0EB@PIOA@h?3?2rd?2server?2rdmenu?4cpp?5?3?5unable@ 00443628     rdMenu.obj
 0002:0000466c       ??_C@_0EC@FPJE@h?3?2rd?2server?2rdmenu?4cpp?5?3?5attemp@ 0044366c     rdMenu.obj
 0002:00004a78       ??_C@_0O@EJFA@Winrd?5Warning?$AA@ 00443a78     rdProperties.obj
 0002:00004a88       ??_C@_0DI@NIEF@h?3?2rd?2server?2rdproperties?4cpp?5?3?5@ 00443a88     rdProperties.obj
 0002:00004ac0       ??_C@_0DK@CPCC@h?3?2rd?2server?2rdproperties?4cpp?5?3?5@ 00443ac0     rdProperties.obj
 0002:00004afc       ??_C@_0DE@BIHI@h?3?2rd?2server?2rdproperties?4cpp?5?3?5@ 00443afc     rdProperties.obj
 0002:00004b30       ??_C@_0EA@OKPM@h?3?2rd?2server?2rdproperties?4cpp?5?3?5@ 00443b30     rdProperties.obj
 0002:00004b70       ??_C@_0DK@EEDL@h?3?2rd?2server?2rdproperties?4cpp?5?3?5@ 00443b70     rdProperties.obj
 0002:00004bac       ??_C@_0DG@PGGI@h?3?2rd?2server?2rdproperties?4cpp?5?3?5@ 00443bac     rdProperties.obj
 0002:00004be4       ??_C@_0DE@PKEF@h?3?2rd?2server?2rdproperties?4cpp?5?3?5@ 00443be4     rdProperties.obj
 0002:00004c18       ??_C@_0DA@LDAL@h?3?2rd?2server?2rdproperties?4cpp?5?3?5@ 00443c18     rdProperties.obj
 0002:00004c48       ??_C@_08OOJ@?$HO?$HO?$HO?$HO?$HO?$HO?$HO?$HO?$AA@ 00443c48     rdProperties.obj
 0002:00004c54       ??_C@_0CH@DGDK@Winrd?3?5Default?5Local?5System?5Prop@ 00443c54     rdProperties.obj
 0002:00004c7c       ??_C@_0BP@PNGP@Winrd?3?5Current?5User?5Properties?$AA@ 00443c7c     rdProperties.obj
 0002:00004c9c       ??_C@_0FK@JNBL@h?3?2rd?2server?2rdproperties?4cpp?5?3?5@ 00443c9c     rdProperties.obj
 0002:00004cf8       ??_C@_0DO@HKNL@h?3?2rd?2server?2rdproperties?4cpp?5?3?5@ 00443cf8     rdProperties.obj
 0002:00004d38       ??_C@_0DN@KMIF@h?3?2rd?2server?2rdproperties?4cpp?5?3?5@ 00443d38     rdProperties.obj
 0002:00004d78       ??_C@_0BB@EJEO@AllowEditClients?$AA@ 00443d78     rdProperties.obj
 0002:00004d8c       ??_C@_0BA@IODN@AllowProperties?$AA@ 00443d8c     rdProperties.obj
 0002:00004d9c       ??_C@_0O@ECDK@AllowShutdown?$AA@ 00443d9c     rdProperties.obj
 0002:00004dac       ??_C@_0EA@PBD@h?3?2rd?2server?2rdproperties?4cpp?5?3?5@ 00443dac     rdProperties.obj
 0002:00004dec       ??_C@_0DI@PHHN@h?3?2rd?2server?2rdproperties?4cpp?5?3?5@ 00443dec     rdProperties.obj
 0002:00004e24       ??_C@_0BA@EJHC@DisableTrayIcon?$AA@ 00443e24     rdProperties.obj
 0002:00004e34       ??_C@_0DN@FHLD@h?3?2rd?2server?2rdproperties?4cpp?5?3?5@ 00443e34     rdProperties.obj
 0002:00004e74       ??_C@_0FJ@MPAF@h?3?2rd?2server?2rdproperties?4cpp?5?3?5@ 00443e74     rdProperties.obj
 0002:00004ed0       ??_C@_0BA@COKG@OnlyPollOnEvent?$AA@ 00443ed0     rdProperties.obj
 0002:00004ee0       ??_C@_0BA@DKCC@OnlyPollConsole?$AA@ 00443ee0     rdProperties.obj
 0002:00004ef0       ??_C@_0P@EJNC@PollFullScreen?$AA@ 00443ef0     rdProperties.obj
 0002:00004f00       ??_C@_0P@KJMJ@PollForeground?$AA@ 00443f00     rdProperties.obj
 0002:00004f10       ??_C@_0BA@JKMH@PollUnderCursor?$AA@ 00443f10     rdProperties.obj
 0002:00004f20       ??_C@_0BE@BJKD@LocalInputsDisabled?$AA@ 00443f20     rdProperties.obj
 0002:00004f34       ??_C@_0M@FOF@LockSetting?$AA@ 00443f34     rdProperties.obj
 0002:00004f40       ??_C@_0O@KMOE@InputsEnabled?$AA@ 00443f40     rdProperties.obj
 0002:00004f50       ??_C@_0N@NKC@CORBAConnect?$AA@ 00443f50     rdProperties.obj
 0002:00004f60       ??_C@_0BB@EDBA@PasswordViewOnly?$AA@ 00443f60     rdProperties.obj
 0002:00004f74       ??_C@_08NKKK@Password?$AA@ 00443f74     rdProperties.obj
 0002:00004f80       ??_C@_0BA@MOJH@RemoveWallpaper?$AA@ 00443f80     rdProperties.obj
 0002:00004f90       ??_C@_0M@LINH@IdleTimeout?$AA@ 00443f90     rdProperties.obj
 0002:00004f9c       ??_C@_0P@NGFK@BeepDisconnect?$AA@ 00443f9c     rdProperties.obj
 0002:00004fac       ??_C@_0M@LHDK@BeepConnect?$AA@ 00443fac     rdProperties.obj
 0002:00004fb8       ??_C@_0P@BMDJ@HTTPPortNumber?$AA@ 00443fb8     rdProperties.obj
 0002:00004fc8       ??_C@_0L@BKFH@PortNumber?$AA@ 00443fc8     rdProperties.obj
 0002:00004fd4       ??_C@_0P@GCHP@AutoPortSelect?$AA@ 00443fd4     rdProperties.obj
 0002:00004fe4       ??_C@_0O@GFEJ@SocketConnect?$AA@ 00443fe4     rdProperties.obj
 0002:00004ff4       ??_C@_03NJKE@MB1?$AA@      00443ff4     rdProperties.obj
 0002:00004ff8       ??_C@_03HPNG@Wrd?$AA@      00443ff8     rdProperties.obj
 0002:00004ffc       ??_C@_0EF@IENI@h?3?2rd?2server?2rdproperties?4cpp?5?3?5@ 00443ffc     rdProperties.obj
 0002:00005044       ??_C@_0DE@FLNM@h?3?2rd?2server?2rdpasswd?4h?5?3?5PASSWD@ 00444044     rdProperties.obj
 0002:00005078       ??_C@_0DF@GMDM@h?3?2rd?2server?2rdpasswd?4h?5?3?5PASSWD@ 00444078     rdProperties.obj
 0002:000050b0       ??_7rdServer@@6B@          004440b0     rdServer.obj
 0002:00005248       ??_C@_0DM@LJPJ@h?3?2rd?2server?2rdserver?4cpp?5?3?5shut@ 00444248     rdServer.obj
 0002:00005284       ??_C@_0DJ@LJCB@h?3?2rd?2server?2rdserver?4cpp?5?3?5shut@ 00444284     rdServer.obj
 0002:000052c0       ??_C@_0CO@BCB@h?3?2rd?2server?2rdserver?4cpp?5?3?5AddC@ 004442c0     rdServer.obj
 0002:000052f0       ??_C@_0EA@MHBB@h?3?2rd?2server?2rdserver?4cpp?5?3?5fail@ 004442f0     rdServer.obj
 0002:00005330       ??_C@_0DO@CHBF@h?3?2rd?2server?2rdserver?4cpp?5?3?5fail@ 00444330     rdServer.obj
 0002:00005370       ??_C@_0EA@ELIH@h?3?2rd?2server?2rdserver?4cpp?5?3?5too?5@ 00444370     rdServer.obj
 0002:000053b0       ??_C@_0DC@GPDP@h?3?2rd?2server?2rdserver?4cpp?5?3?5Auth@ 004443b0     rdServer.obj
 0002:000053e4       ??_C@_0DO@HJCN@h?3?2rd?2server?2rdserver?4cpp?5?3?5fail@ 004443e4     rdServer.obj
 0002:00005424       ??_C@_0EB@NDHK@h?3?2rd?2server?2rdserver?4cpp?5?3?5fail@ 00444424     rdServer.obj
 0002:00005468       ??_C@_0DP@PDJK@h?3?2rd?2server?2rdserver?4cpp?5?3?5fail@ 00444468     rdServer.obj
 0002:000054a8       ??_C@_0CP@CJHK@h?3?2rd?2server?2rdserver?4cpp?5?3?5Kill@ 004444a8     rdServer.obj
 0002:000054d8       ??_C@_0DB@JDHE@h?3?2rd?2server?2rdserver?4cpp?5?3?5kill@ 004444d8     rdServer.obj
 0002:0000550c       ??_C@_0DD@LMHL@h?3?2rd?2server?2rdserver?4cpp?5?3?5kill@ 0044450c     rdServer.obj
 0002:00005540       ??_C@_0DE@GONP@h?3?2rd?2server?2rdserver?4cpp?5?3?5Kill@ 00444540     rdServer.obj
 0002:00005574       ??_C@_0DG@OBEN@h?3?2rd?2server?2rdserver?4cpp?5?3?5Kill@ 00444574     rdServer.obj
 0002:000055ac       ??_C@_0DB@DDCL@h?3?2rd?2server?2rdserver?4cpp?5?3?5Remo@ 004445ac     rdServer.obj
 0002:000055e0       ??_C@_0EI@FDCM@h?3?2rd?2server?2rdserver?4cpp?5?3?5clie@ 004445e0     rdServer.obj
 0002:00005628       ??_C@_0DF@FEMG@h?3?2rd?2server?2rdserver?4cpp?5?3?5dele@ 00444628     rdServer.obj
 0002:00005660       ??_C@_0DI@FGE@h?3?2rd?2server?2rdserver?4cpp?5?3?5remo@ 00444660     rdServer.obj
 0002:00005698       ??_C@_0DK@PAII@h?3?2rd?2server?2rdserver?4cpp?5?3?5remo@ 00444698     rdServer.obj
 0002:000056d4       ??_C@_0DD@KGFN@h?3?2rd?2server?2rdserver?4cpp?5?3?5tryi@ 004446d4     rdServer.obj
 0002:00005708       ??_7rdCorbaConnect@@6B@    00444708     rdServer.obj
 0002:0000570c       ??_C@_0DC@JIO@h?3?2rd?2server?2rdserver?4cpp?5?3?5GetS@ 0044470c     rdServer.obj
 0002:00005740       ??_C@_0DD@LPPB@h?3?2rd?2server?2rdserver?4cpp?5?3?5auth@ 00444740     rdServer.obj
 0002:00005774       ??_C@_0CP@BBGO@h?3?2rd?2server?2rdserver?4cpp?5?3?5auth@ 00444774     rdServer.obj
 0002:000057a4       ??_C@_0EG@JBAD@h?3?2rd?2server?2rdserver?4cpp?5?3?5veri@ 004447a4     rdServer.obj
 0002:000057ec       ??_C@_0EG@BAEJ@h?3?2rd?2server?2rdserver?4cpp?5?3?5veri@ 004447ec     rdServer.obj
 0002:00005834       ??_C@_0DL@IPMH@h?3?2rd?2server?2rdserver?4cpp?5?3?5veri@ 00444834     rdServer.obj
 0002:0000588c       ??_C@_0DN@PIFD@h?3?2rd?2server?2rdservice?4cpp?5?3?5Get@ 0044488c     rdService.obj
 0002:000058cc       ??_C@_0FD@GFHG@h?3?2rd?2server?2rdservice?4cpp?5?3?5Sel@ 004448cc     rdService.obj
 0002:00005920       ??_C@_0EF@OCKO@h?3?2rd?2server?2rdservice?4cpp?5?3?5una@ 00444920     rdService.obj
 0002:00005968       ??_C@_0DP@MEIE@h?3?2rd?2server?2rdservice?4cpp?5?3?5Sel@ 00444968     rdService.obj
 0002:000059a8       ??_C@_0EA@PNDC@h?3?2rd?2server?2rdservice?4cpp?5?3?5Get@ 004449a8     rdService.obj
 0002:000059e8       ??_C@_0EO@LMML@h?3?2rd?2server?2rdservice?4cpp?5?3?5Sel@ 004449e8     rdService.obj
 0002:00005a38       ??_C@_0EH@LEAF@h?3?2rd?2server?2rdservice?4cpp?5?3?5Sel@ 00444a38     rdService.obj
 0002:00005a80       ??_C@_0DP@EAFC@h?3?2rd?2server?2rdservice?4cpp?5?3?5una@ 00444a80     rdService.obj
 0002:00005ac0       ??_C@_0BL@CJLM@h?3?2rd?2server?2rdservice?4cpp?$AA@ 00444ac0     rdService.obj
 0002:00005adc       ??_C@_0DM@DPML@h?3?2rd?2server?2rdservice?4cpp?5?3?5fai@ 00444adc     rdService.obj
 0002:00005b18       ??_C@_0DG@JDIB@h?3?2rd?2server?2rdservice?4cpp?5?3?5gen@ 00444b18     rdService.obj
 0002:00005b50       ??_C@_0DN@OFE@h?3?2rd?2server?2rdservice?4cpp?5?3?5fai@ 00444b50     rdService.obj
 0002:00005b90       ??_C@_08HMAH@Winlogon?$AA@ 00444b90     rdService.obj
 0002:00005b9c       ??_C@_0DL@KKGA@h?3?2rd?2server?2rdservice?4cpp?5?3?5spa@ 00444b9c     rdService.obj
 0002:00005bd8       ??_C@_0EB@HMPD@h?3?2rd?2server?2rdservice?4cpp?5?3?5pre@ 00444bd8     rdService.obj
 0002:00005c1c       ??_C@_0DN@GAIA@h?3?2rd?2server?2rdservice?4cpp?5?3?5cal@ 00444c1c     rdService.obj
 0002:00005c5c       ??_C@_0GF@KCG@h?3?2rd?2server?2rdservice?4cpp?5?3?5una@ 00444c5c     rdService.obj
 0002:00005cc4       ??_C@_0BA@HEML@LockWorkStation?$AA@ 00444cc4     rdService.obj
 0002:00005cd4       ??_C@_0DN@PHEJ@h?3?2rd?2server?2rdservice?4cpp?5?3?5una@ 00444cd4     rdService.obj
 0002:00005d14       ??_C@_0L@HKL@user32?4dll?$AA@ 00444d14     rdService.obj
 0002:00005d20       ??_C@_0DC@IGJO@h?3?2rd?2server?2rdservice?4cpp?5?3?5loc@ 00444d20     rdService.obj
 0002:00005d54       ??_C@_0EC@ELKA@h?3?2rd?2server?2rdservice?4cpp?5?3?5una@ 00444d54     rdService.obj
 0002:00005d98       ??_C@_0DB@NEBD@No?5existing?5instance?5of?5Winrd?5co@ 00444d98     rdService.obj
 0002:00005dcc       ??_C@_0DL@GJEH@h?3?2rd?2server?2rdservice?4cpp?5?3?5imp@ 00444dcc     rdService.obj
 0002:00005e08       ??_C@_0ED@FCLJ@h?3?2rd?2server?2rdservice?4cpp?5?3?5fai@ 00444e08     rdService.obj
 0002:00005e4c       ??_C@_0EB@CDAD@h?3?2rd?2server?2rdservice?4cpp?5?3?5fai@ 00444e4c     rdService.obj
 0002:00005e90       ??_C@_0EJ@BNCO@h?3?2rd?2server?2rdservice?4cpp?5?3?5fai@ 00444e90     rdService.obj
 0002:00005edc       ??_C@_0EE@FNPG@h?3?2rd?2server?2rdservice?4cpp?5?3?5fai@ 00444edc     rdService.obj
 0002:00005f20       ??_C@_0CD@CNAK@StartServiceCtrlDispatcher?5faile@ 00444f20     rdService.obj
 0002:00005f44       ??_C@_05EAJO@winrd?$AA@    00444f44     rdService.obj
 0002:00005f4c       ??_C@_0BH@EKIN@RegisterServiceProcess?$AA@ 00444f4c     rdService.obj
 0002:00005f64       ??_C@_0N@MMAA@KERNEL32?4DLL?$AA@ 00444f64     rdService.obj
 0002:00005f74       ??_C@_0DI@HFGM@h?3?2rd?2server?2rdservice?4cpp?5?3?5qui@ 00444f74     rdService.obj
 0002:00005fac       ??_C@_0KD@CEIL@The?5Winrd?5service?5was?5successful@ 00444fac     rdService.obj
 0002:00006050       ??_C@_0GL@JKBB@WARNING?3Unable?5to?5install?5the?5Se@ 00445050     rdService.obj
 0002:000060bc       ??_C@_0CO@OBOI@Software?2Microsoft?2Windows?2Curre@ 004450bc     rdService.obj
 0002:000060ec       ??_C@_0CI@DMAM@The?5Winrd?5service?5is?5already?5reg@ 004450ec     rdService.obj
 0002:00006114       ??_C@_09PFGJ@rd?5Server?$AA@ 00445114     rdService.obj
 0002:00006120       ??_C@_0FK@NHKN@The?5Service?5Control?5Manager?5coul@ 00445120     rdService.obj
 0002:0000617c       ??_C@_0CC@DPGJ@The?5Winrd?5service?5failed?5to?5star@ 0044517c     rdService.obj
 0002:000061a0       ??_C@_0IK@NAHI@The?5Winrd?5service?5was?5successful@ 004451a0     rdService.obj
 0002:0000622c       ??_C@_0CK@EDLJ@The?5Winrd?5service?5could?5not?5be?5r@ 0044522c     rdService.obj
 0002:00006258       ??_C@_0EF@JJCC@The?5SCM?5could?5not?5be?5contacted?5?9@ 00445258     rdService.obj
 0002:000062a0       ??_C@_0DG@JGK@Software?2Microsoft?2Windows?2Curre@ 004452a0     rdService.obj
 0002:000062d8       ??_C@_07INPH@?$CC?$CFs?$CC?5?$CFs?$AA@ 004452d8     rdService.obj
 0002:000062e0       ??_C@_0CA@LPOL@Unable?5to?5install?5Winrd?5service?$AA@ 004452e0     rdService.obj
 0002:00006300       ??_C@_0CF@FKBN@The?5Winrd?5service?5could?5not?5be?5f@ 00445300     rdService.obj
 0002:00006328       ??_C@_0DH@FIKD@The?5Winrd?5service?5is?5already?5mar@ 00445328     rdService.obj
 0002:00006360       ??_C@_0CH@EIJ@The?5Winrd?5service?5could?5not?5be?5s@ 00445360     rdService.obj
 0002:00006388       ??_C@_0EM@GJEK@WARNING?3The?5ServiceHelper?5hook?5e@ 00445388     rdService.obj
 0002:000063d4       ??_C@_0CI@FHLP@The?5Winrd?5service?5has?5been?5unreg@ 004453d4     rdService.obj
 0002:000063fc       ??_C@_0CJ@KDFC@The?5Winrd?5service?5could?5not?5be?5c@ 004453fc     rdService.obj
 0002:00006428       ??_C@_0CM@KLNK@The?5Winrd?5service?5could?5not?5be?5u@ 00445428     rdService.obj
 0002:00006454       ??_C@_0FM@HJBJ@The?5Service?5Control?5Manager?5coul@ 00445454     rdService.obj
 0002:000064b0       ??_C@_0BI@OONL@SetServiceStatus?5failed?$AA@ 004454b0     rdService.obj
 0002:000064c8       ??_C@_0BB@NKFC@?$CF?4200s?5error?3?5?$CFd?$AA@ 004454c8     rdService.obj
 0002:000064dc       ??_C@_0EE@PAMD@h?3?2rd?2server?2rdsockconnect?4cpp?5?3@ 004454dc     rdSockConnect.obj
 0002:00006520       ??_C@_0DO@GBFD@h?3?2rd?2server?2rdsockconnect?4cpp?5?3@ 00445520     rdSockConnect.obj
 0002:00006560       ??_C@_0ED@GOCF@h?3?2rd?2server?2rdsockconnect?4cpp?5?3@ 00445560     rdSockConnect.obj
 0002:000065a4       ??_7rdSockConnect@@6B@     004455a4     rdSockConnect.obj
 0002:000065a8       ??_7rdSockConnectThread@@6B@ 004455a8     rdSockConnect.obj
 0002:000065b8       ??_7rdTimedMsgBoxThread@@6B@ 004455b8     rdTimedMsgBox.obj
 0002:000065c4       ??_C@_09HDOJ@Winrd?4log?$AA@ 004455c4     stdhdrs.obj
 0002:000065d0       ??_C@_0EJ@BMEI@h?3?2rd?2server?2tableinitcmtemplate@ 004455d0     translate.obj
 0002:0000661c       ??_C@_0EP@EECK@h?3?2rd?2server?2tableinitcmtemplate@ 0044561c     translate.obj
 0002:0000666c       ??_C@_0EN@CPFD@h?3?2rd?2server?2tableinitcmtemplate@ 0044566c     translate.obj
 0002:000066bc       ??_C@_0EL@GDPJ@h?3?2rd?2server?2tableinitcmtemplate@ 004456bc     translate.obj
 0002:00006708       ??_7VSocket@@6B@           00445708     VSocket.obj
 0002:0000670c       ??_C@_0CL@EGFA@h?3?2rd?2server?2vsocket?4cpp?5?3?5closi@ 0044570c     VSocket.obj
 0002:00006738       ??_C@_0CM@GIMA@h?3?2rd?2server?2vsocket?4cpp?5?3?5shutd@ 00445738     VSocket.obj
 0002:00006764       ??_C@_0O@DDGG@?$DMunavailable?$DO?$AA@ 00445764     VSocket.obj
 0002:00006774       ??_C@_0DF@CIMN@h?3?2rd?2server?2vsocket?4cpp?5?3?5socke@ 00445774     VSocket.obj
 0002:000067ac       ??_C@_0CJ@HNPL@h?3?2rd?2server?2vsocket?4cpp?5?3?5socke@ 004457ac     VSocket.obj
 0002:000067d8       ??_C@_0CM@JLCI@h?3?2rd?2server?2vsocket?4cpp?5?3?5zero?5@ 004457d8     VSocket.obj
 0002:00006924       ??_C@_0M@NFJL@Winrd?5Usage?$AA@ 00445924     Winrd.obj
 0002:00006930       ??_C@_0CO@KKLB@H?3?2rd?2server?2Winrd?4cpp?5?3?5sockets@ 00445930     Winrd.obj
 0002:00006960       ??_C@_0CH@HAGN@Failed?5to?5initialise?5the?5socket?5@ 00445960     Winrd.obj
 0002:00006988       ??_C@_0CP@DGFH@H?3?2rd?2server?2Winrd?4cpp?5?3?5shuttin@ 00445988     Winrd.obj
 0002:000069b8       ??_C@_0CO@IHPO@H?3?2rd?2server?2Winrd?4cpp?5?3?5message@ 004459b8     Winrd.obj
 0002:000069e8       ??_C@_0DF@PHAO@H?3?2rd?2server?2Winrd?4cpp?5?3?5failed?5@ 004459e8     Winrd.obj
 0002:00006a20       ??_C@_0CM@DNCJ@H?3?2rd?2server?2Winrd?4cpp?5?3?5server?5@ 00445a20     Winrd.obj
 0002:00006a4c       ??_C@_0CN@DJLA@Another?5instance?5of?5Winrd?5is?5alr@ 00445a4c     Winrd.obj
 0002:00006a80       _CLSID_ActiveDesktop       00445a80     shell32:shguid_guid68.obj
 0002:00006a90       _IID_IActiveDesktop        00445a90     shell32:shguid_guid69.obj
 0002:00006e50       _jpeg_std_message_table    00445e50     libjpeg:jerror.obj
 0002:00007044       ??_C@_0CL@KPEE@Application?5transferred?5too?5many@ 00446044     libjpeg:jerror.obj
 0002:00007070       ??_C@_0CL@DGCP@Invalid?5SOS?5parameters?5for?5seque@ 00446070     libjpeg:jerror.obj
 0002:0000709c       ??_C@_0DI@KKMD@Corrupt?5JPEG?5data?3?5found?5marker?5@ 0044609c     libjpeg:jerror.obj
 0002:000070d4       ??_C@_0BL@CCLA@Premature?5end?5of?5JPEG?5file?$AA@ 004460d4     libjpeg:jerror.obj
 0002:000070f0       ??_C@_0CO@KOEI@Warning?3?5unknown?5JFIF?5revision?5n@ 004460f0     libjpeg:jerror.obj
 0002:00007120       ??_C@_0CE@LJLO@Corrupt?5JPEG?5data?3?5bad?5Huffman?5c@ 00446120     libjpeg:jerror.obj
 0002:00007144       ??_C@_0DB@NJCK@Corrupt?5JPEG?5data?3?5premature?5end@ 00446144     libjpeg:jerror.obj
 0002:00007178       ??_C@_0DM@LCPP@Corrupt?5JPEG?5data?3?5?$CFu?5extraneous@ 00446178     libjpeg:jerror.obj
 0002:000071b4       ??_C@_0EC@HHMG@Inconsistent?5progression?5sequenc@ 004461b4     libjpeg:jerror.obj
 0002:000071f8       ??_C@_0CG@NMIJ@Unknown?5Adobe?5color?5transform?5co@ 004461f8     libjpeg:jerror.obj
 0002:00007220       ??_C@_0BH@FJIP@Obtained?5XMS?5handle?5?$CFu?$AA@ 00446220     libjpeg:jerror.obj
 0002:00007238       ??_C@_0BE@OPPB@Freed?5XMS?5handle?5?$CFu?$AA@ 00446238     libjpeg:jerror.obj
 0002:0000724c       ??_C@_0DE@HBF@Unrecognized?5component?5IDs?5?$CFd?5?$CFd@ 0044624c     libjpeg:jerror.obj
 0002:00007280       ??_C@_0DG@OMEL@JFIF?5extension?5marker?3?5RGB?5thumb@ 00446280     libjpeg:jerror.obj
 0002:000072b8       ??_C@_0DK@DDOL@JFIF?5extension?5marker?3?5palette?5t@ 004462b8     libjpeg:jerror.obj
 0002:000072f4       ??_C@_0EC@OLOP@JFIF?5extension?5marker?3?5JPEG?9comp@ 004462f4     libjpeg:jerror.obj
 0002:00007338       ??_C@_0BJ@EFFL@Opened?5temporary?5file?5?$CFs?$AA@ 00446338     libjpeg:jerror.obj
 0002:00007354       ??_C@_0BJ@DBD@Closed?5temporary?5file?5?$CFs?$AA@ 00446354     libjpeg:jerror.obj
 0002:00007370       ??_C@_0BN@DPAO@?5?5Ss?$DN?$CFd?0?5Se?$DN?$CFd?0?5Ah?$DN?$CFd?0?5Al?$DN?$CFd?$AA@ 00446370     libjpeg:jerror.obj
 0002:00007390       ??_C@_0BO@DMDD@?5?5?5?5Component?5?$CFd?3?5dc?$DN?$CFd?5ac?$DN?$CFd?$AA@ 00446390     libjpeg:jerror.obj
 0002:000073b0       ??_C@_0BN@BLFJ@Start?5Of?5Scan?3?5?$CFd?5components?$AA@ 004463b0     libjpeg:jerror.obj
 0002:000073d0       ??_C@_0P@FAEJ@Start?5of?5Image?$AA@ 004463d0     libjpeg:jerror.obj
 0002:000073e0       ??_C@_0BP@FKBK@?5?5?5?5Component?5?$CFd?3?5?$CFdhx?$CFdv?5q?$DN?$CFd?$AA@ 004463e0     libjpeg:jerror.obj
 0002:00007400       ??_C@_0DK@IGCC@Start?5Of?5Frame?50x?$CF02x?3?5width?$DN?$CFu?0@ 00446400     libjpeg:jerror.obj
 0002:0000743c       ??_C@_0DJ@BEKA@Smoothing?5not?5supported?5with?5non@ 0044643c     libjpeg:jerror.obj
 0002:00007478       ??_C@_05NKN@RST?$CFd?$AA@  00446478     libjpeg:jerror.obj
 0002:00007480       ??_C@_0CF@DIDH@At?5marker?50x?$CF02x?0?5recovery?5actio@ 00446480     libjpeg:jerror.obj
 0002:000074a8       ??_C@_0CE@OOJH@Selected?5?$CFd?5colors?5for?5quantizat@ 004464a8     libjpeg:jerror.obj
 0002:000074cc       ??_C@_0BI@IPAL@Quantizing?5to?5?$CFd?5colors?$AA@ 004464cc     libjpeg:jerror.obj
 0002:000074e4       ??_C@_0CD@IBAL@Quantizing?5to?5?$CFd?5?$DN?5?$CFd?$CK?$CFd?$CK?$CFd?5colo@ 004464e4     libjpeg:jerror.obj
 0002:00007508       ??_C@_0CI@JOIL@?5?5?5?5?5?5?5?5?$CF4u?5?$CF4u?5?$CF4u?5?$CF4u?5?$CF4u?5?$CF4u?5@ 00446508     libjpeg:jerror.obj
 0002:00007530       ??_C@_0BJ@LGOI@Unexpected?5marker?50x?$CF02x?$AA@ 00446530     libjpeg:jerror.obj
 0002:0000754c       ??_C@_0CH@NFBM@Miscellaneous?5marker?50x?$CF02x?0?5len@ 0044654c     libjpeg:jerror.obj
 0002:00007574       ??_C@_0CB@KGBF@?5?5?5?5with?5?$CFd?5x?5?$CFd?5thumbnail?5image@ 00446574     libjpeg:jerror.obj
 0002:00007598       ??_C@_0CO@MHNF@JFIF?5extension?5marker?3?5type?50x?$CF0@ 00446598     libjpeg:jerror.obj
 0002:000075c8       ??_C@_0DM@PAHO@Warning?3?5thumbnail?5image?5size?5do@ 004465c8     libjpeg:jerror.obj
 0002:00007604       ??_C@_0DF@PJO@JFIF?5APP0?5marker?3?5version?5?$CFd?4?$CF02@ 00446604     libjpeg:jerror.obj
 0002:0000763c       ??_C@_0CI@HOID@?5?5?5?5?5?5?5?5?$CF3d?5?$CF3d?5?$CF3d?5?$CF3d?5?$CF3d?5?$CF3d?5@ 0044663c     libjpeg:jerror.obj
 0002:00007664       ??_C@_0N@CBOJ@End?5Of?5Image?$AA@ 00446664     libjpeg:jerror.obj
 0002:00007674       ??_C@_0BH@NAOE@Obtained?5EMS?5handle?5?$CFu?$AA@ 00446674     libjpeg:jerror.obj
 0002:0000768c       ??_C@_0BE@GGJK@Freed?5EMS?5handle?5?$CFu?$AA@ 0044668c     libjpeg:jerror.obj
 0002:000076a0       ??_C@_0BL@COFD@Define?5Restart?5Interval?5?$CFu?$AA@ 004466a0     libjpeg:jerror.obj
 0002:000076bc       ??_C@_0CL@OPD@Define?5Quantization?5Table?5?$CFd?5?5pr@ 004466bc     libjpeg:jerror.obj
 0002:000076e8       ??_C@_0BM@NIIN@Define?5Huffman?5Table?50x?$CF02x?$AA@ 004466e8     libjpeg:jerror.obj
 0002:00007704       ??_C@_0CH@CAM@Define?5Arithmetic?5Table?50x?$CF02x?3?5@ 00446704     libjpeg:jerror.obj
 0002:0000772c       ??_C@_0CM@ONLH@Unknown?5APP14?5marker?5?$CInot?5Adobe?$CJ@ 0044672c     libjpeg:jerror.obj
 0002:00007758       ??_C@_0CK@CFHB@Unknown?5APP0?5marker?5?$CInot?5JFIF?$CJ?0?5@ 00446758     libjpeg:jerror.obj
 0002:00007784       ??_C@_0EC@JKMJ@Adobe?5APP14?5marker?3?5version?5?$CFd?0?5@ 00446784     libjpeg:jerror.obj
 0002:000077c8       ??_C@_0DO@IFPM@Caution?3?5quantization?5tables?5are@ 004467c8     libjpeg:jerror.obj
 0002:00007808       ??_C@_0BA@BDJA@6b?5?527?9Mar?91998?$AA@ 00446808     libjpeg:jerror.obj
 0002:00007818       ??_C@_0CD@CFGJ@Copyright?5?$CIC?$CJ?51998?0?5Thomas?5G?4?5La@ 00446818     libjpeg:jerror.obj
 0002:0000783c       ??_C@_0BE@PGKE@Write?5to?5XMS?5failed?$AA@ 0044683c     libjpeg:jerror.obj
 0002:00007850       ??_C@_0BF@MCFF@Read?5from?5XMS?5failed?$AA@ 00446850     libjpeg:jerror.obj
 0002:00007868       ??_C@_0CH@JLNP@Image?5too?5wide?5for?5this?5implemen@ 00446868     libjpeg:jerror.obj
 0002:00007890       ??_C@_0CD@CKND@Virtual?5array?5controller?5messed?5@ 00446890     libjpeg:jerror.obj
 0002:000078b4       ??_C@_0BP@GHDH@Unsupported?5marker?5type?50x?$CF02x?$AA@ 004468b4     libjpeg:jerror.obj
 0002:000078d4       ??_C@_0CK@HFBB@Application?5transferred?5too?5few?5@ 004468d4     libjpeg:jerror.obj
 0002:00007900       ??_C@_0DG@FGBC@Write?5failed?5on?5temporary?5file?5?9@ 00446900     libjpeg:jerror.obj
 0002:00007938       ??_C@_0BO@POJN@Seek?5failed?5on?5temporary?5file?$AA@ 00446938     libjpeg:jerror.obj
 0002:00007958       ??_C@_0BO@NLPB@Read?5failed?5on?5temporary?5file?$AA@ 00446958     libjpeg:jerror.obj
 0002:00007978       ??_C@_0CD@OPHA@Failed?5to?5create?5temporary?5file?5@ 00446978     libjpeg:jerror.obj
 0002:0000799c       ??_C@_0CM@LEOA@Invalid?5JPEG?5file?5structure?3?5SOS@ 0044699c     libjpeg:jerror.obj
 0002:000079c8       ??_C@_0CN@BOPG@Invalid?5JPEG?5file?5structure?3?5two@ 004469c8     libjpeg:jerror.obj
 0002:000079f8       ??_C@_0CK@JIMH@Unsupported?5JPEG?5process?3?5SOF?5ty@ 004469f8     libjpeg:jerror.obj
 0002:00007a24       ??_C@_0DA@EFHH@Invalid?5JPEG?5file?5structure?3?5mis@ 00446a24     libjpeg:jerror.obj
 0002:00007a54       ??_C@_0CN@EDEP@Invalid?5JPEG?5file?5structure?3?5two@ 00446a54     libjpeg:jerror.obj
 0002:00007a84       ??_C@_0CH@GIKM@Cannot?5quantize?5to?5more?5than?5?$CFd?5@ 00446a84     libjpeg:jerror.obj
 0002:00007aac       ??_C@_0CI@GPJB@Cannot?5quantize?5to?5fewer?5than?5?$CFd@ 00446aac     libjpeg:jerror.obj
 0002:00007ad4       ??_C@_0CO@BMMA@Cannot?5quantize?5more?5than?5?$CFd?5col@ 00446ad4     libjpeg:jerror.obj
 0002:00007b04       ??_C@_0BO@DGCL@Insufficient?5memory?5?$CIcase?5?$CFd?$CJ?$AA@ 00446b04     libjpeg:jerror.obj
 0002:00007b24       ??_C@_0CL@CCLH@Not?5a?5JPEG?5file?3?5starts?5with?50x?$CF@ 00446b24     libjpeg:jerror.obj
 0002:00007b50       ??_C@_0CK@MKLH@Quantization?5table?50x?$CF02x?5was?5no@ 00446b50     libjpeg:jerror.obj
 0002:00007b7c       ??_C@_0CC@FLIL@JPEG?5datastream?5contains?5no?5imag@ 00446b7c     libjpeg:jerror.obj
 0002:00007ba0       ??_C@_0CF@IGEA@Huffman?5table?50x?$CF02x?5was?5not?5def@ 00446ba0     libjpeg:jerror.obj
 0002:00007bc8       ??_C@_0BM@LFDP@Backing?5store?5not?5supported?$AA@ 00446bc8     libjpeg:jerror.obj
 0002:00007be4       ??_C@_0CO@LEJG@Requested?5feature?5was?5omitted?5at@ 00446be4     libjpeg:jerror.obj
 0002:00007c14       ??_C@_0BE@FPCJ@Not?5implemented?5yet?$AA@ 00446c14     libjpeg:jerror.obj
 0002:00007c28       ??_C@_0CH@JKLM@Invalid?5color?5quantization?5mode?5@ 00446c28     libjpeg:jerror.obj
 0002:00007c50       ??_C@_0CH@IKIP@Scan?5script?5does?5not?5transmit?5al@ 00446c50     libjpeg:jerror.obj
 0002:00007c78       ??_C@_0DO@CPDA@Cannot?5transcode?5due?5to?5multiple@ 00446c78     libjpeg:jerror.obj
 0002:00007cb8       ??_C@_0BM@LFEG@Premature?5end?5of?5input?5file?$AA@ 00446cb8     libjpeg:jerror.obj
 0002:00007cd4       ??_C@_0BB@CPJA@Empty?5input?5file?$AA@ 00446cd4     libjpeg:jerror.obj
 0002:00007ce8       ??_C@_0CP@OHKB@Maximum?5supported?5image?5dimensio@ 00446ce8     libjpeg:jerror.obj
 0002:00007d18       ??_C@_0CB@LEBD@Missing?5Huffman?5code?5table?5entry@ 00446d18     libjpeg:jerror.obj
 0002:00007d3c       ??_C@_0CB@CLO@Huffman?5code?5size?5table?5overflow@ 00446d3c     libjpeg:jerror.obj
 0002:00007d60       ??_C@_0CI@GGDO@Fractional?5sampling?5not?5implemen@ 00446d60     libjpeg:jerror.obj
 0002:00007d88       ??_C@_0CP@LPEK@Output?5file?5write?5error?5?9?9?9?5out?5@ 00446d88     libjpeg:jerror.obj
 0002:00007db8       ??_C@_0BG@JKLB@Input?5file?5read?5error?$AA@ 00446db8     libjpeg:jerror.obj
 0002:00007dd0       ??_C@_0CB@LEKJ@Didn?8t?5expect?5more?5than?5one?5scan@ 00446dd0     libjpeg:jerror.obj
 0002:00007df4       ??_C@_0BE@MEFJ@Write?5to?5EMS?5failed?$AA@ 00446df4     libjpeg:jerror.obj
 0002:00007e08       ??_C@_0BF@PAKI@Read?5from?5EMS?5failed?$AA@ 00446e08     libjpeg:jerror.obj
 0002:00007e20       ??_C@_0CF@NBMO@Empty?5JPEG?5image?5?$CIDNL?5not?5suppor@ 00446e20     libjpeg:jerror.obj
 0002:00007e48       ??_C@_0BD@MHLJ@Bogus?5DQT?5index?5?$CFd?$AA@ 00446e48     libjpeg:jerror.obj
 0002:00007e5c       ??_C@_0BD@NBLE@Bogus?5DHT?5index?5?$CFd?$AA@ 00446e5c     libjpeg:jerror.obj
 0002:00007e70       ??_C@_0BF@LMAO@Bogus?5DAC?5value?50x?$CFx?$AA@ 00446e70     libjpeg:jerror.obj
 0002:00007e88       ??_C@_0BD@DMCO@Bogus?5DAC?5index?5?$CFd?$AA@ 00446e88     libjpeg:jerror.obj
 0002:00007e9c       ??_C@_0CF@POAA@Unsupported?5color?5conversion?5req@ 00446e9c     libjpeg:jerror.obj
 0002:00007ec4       ??_C@_0CG@GHCD@Too?5many?5color?5components?3?5?$CFd?0?5m@ 00446ec4     libjpeg:jerror.obj
 0002:00007eec       ??_C@_0CF@MONF@CCIR601?5sampling?5not?5implemented@ 00446eec     libjpeg:jerror.obj
 0002:00007f14       ??_C@_0BM@MGNK@Suspension?5not?5allowed?5here?$AA@ 00446f14     libjpeg:jerror.obj
 0002:00007f30       ??_C@_0CL@EPCK@Buffer?5passed?5to?5JPEG?5library?5is@ 00446f30     libjpeg:jerror.obj
 0002:00007f5c       ??_C@_0BL@IGMP@Bogus?5virtual?5array?5access?$AA@ 00446f5c     libjpeg:jerror.obj
 0002:00007f78       ??_C@_0EN@HMFC@JPEG?5parameter?5struct?5mismatch?3?5@ 00446f78     libjpeg:jerror.obj
 0002:00007fc8       ??_C@_0CK@CEON@Improper?5call?5to?5JPEG?5library?5in@ 00446fc8     libjpeg:jerror.obj
 0002:00007ff4       ??_C@_0CA@FMAB@Invalid?5scan?5script?5at?5entry?5?$CFd?$AA@ 00446ff4     libjpeg:jerror.obj
 0002:00008014       ??_C@_0BH@MNN@Bogus?5sampling?5factors?$AA@ 00447014     libjpeg:jerror.obj
 0002:0000802c       ??_C@_0DH@DIJK@Invalid?5progressive?5parameters?5a@ 0044702c     libjpeg:jerror.obj
 0002:00008064       ??_C@_0DH@HHBL@Invalid?5progressive?5parameters?5S@ 00447064     libjpeg:jerror.obj
 0002:0000809c       ??_C@_0CD@BPNC@Unsupported?5JPEG?5data?5precision?5@ 0044709c     libjpeg:jerror.obj
 0002:000080c0       ??_C@_0BM@HOOF@Invalid?5memory?5pool?5code?5?$CFd?$AA@ 004470c0     libjpeg:jerror.obj
 0002:000080dc       ??_C@_0DA@FGHF@Sampling?5factors?5too?5large?5for?5i@ 004470dc     libjpeg:jerror.obj
 0002:0000810c       ??_C@_0DN@IBDJ@Wrong?5JPEG?5library?5version?3?5libr@ 0044710c     libjpeg:jerror.obj
 0002:0000814c       ??_C@_0BE@DFMG@Bogus?5marker?5length?$AA@ 0044714c     libjpeg:jerror.obj
 0002:00008160       ??_C@_0BG@NFIP@Bogus?5JPEG?5colorspace?$AA@ 00447160     libjpeg:jerror.obj
 0002:00008178       ??_C@_0BH@FCFN@Bogus?5input?5colorspace?$AA@ 00447178     libjpeg:jerror.obj
 0002:00008190       ??_C@_0BP@FKAG@Bogus?5Huffman?5table?5definition?$AA@ 00447190     libjpeg:jerror.obj
 0002:000081b0       ??_C@_0CI@PMIN@IDCT?5output?5block?5size?5?$CFd?5not?5su@ 004471b0     libjpeg:jerror.obj
 0002:000081d8       ??_C@_0BN@LHMG@DCT?5coefficient?5out?5of?5range?$AA@ 004471d8     libjpeg:jerror.obj
 0002:000081f8       ??_C@_0BP@PHIG@Invalid?5component?5ID?5?$CFd?5in?5SOS?$AA@ 004471f8     libjpeg:jerror.obj
 0002:00008218       ??_C@_0BK@NLEP@Bogus?5buffer?5control?5mode?$AA@ 00447218     libjpeg:jerror.obj
 0002:00008234       ??_C@_0CF@JENB@MAX_ALLOC_CHUNK?5is?5wrong?0?5please@ 00447234     libjpeg:jerror.obj
 0002:0000825c       ??_C@_0CA@GCN@ALIGN_TYPE?5is?5wrong?0?5please?5fix?$AA@ 0044725c     libjpeg:jerror.obj
 0002:0000827c       ??_C@_0DJ@LIJI@Sorry?0?5there?5are?5legal?5restricti@ 0044727c     libjpeg:jerror.obj
 0002:000082b8       ??_C@_0BG@LNGG@Bogus?5message?5code?5?$CFd?$AA@ 004472b8     libjpeg:jerror.obj
 0002:000082d0       ??_C@_03HHKO@?$CFs?6?$AA@  004472d0     libjpeg:jerror.obj
 0002:000082e4       ??_C@_05HLOL@?$CFld?$CFc?$AA@ 004472e4     libjpeg:jmemmgr.obj
 0002:000082ec       ??_C@_07CBHP@JPEGMEM?$AA@  004472ec     libjpeg:jmemmgr.obj
 0002:000082f4       _jpeg_natural_order        004472f4     libjpeg:jutils.obj
 0002:000084f8       __real@8@3fff8000000000000000 004474f8     libjpeg:jcdctmgr.obj
 0002:00008500       __real@8@40028000000000000000 00447500     libjpeg:jcdctmgr.obj
 0002:00008508       __real@4@400d8001000000000000 00447508     libjpeg:jcdctmgr.obj
 0002:0000850c       __real@4@3fffa73d750000000000 0044750c     libjpeg:jfdctflt.obj
 0002:00008510       __real@4@3ffe8a8bd40000000000 00447510     libjpeg:jfdctflt.obj
 0002:00008514       __real@4@3ffdc3ef150000000000 00447514     libjpeg:jfdctflt.obj
 0002:00008518       __real@4@3ffeb504f30000000000 00447518     libjpeg:jfdctflt.obj
 0002:00009a40       __IMPORT_DESCRIPTOR_WSOCK32 00448a40     wsock32:WSOCK32.dll
 0002:00009a54       __IMPORT_DESCRIPTOR_KERNEL32 00448a54     kernel32:KERNEL32.dll
 0002:00009a68       __IMPORT_DESCRIPTOR_USER32 00448a68     user32:USER32.dll
 0002:00009a7c       __IMPORT_DESCRIPTOR_GDI32  00448a7c     gdi32:GDI32.dll
 0002:00009a90       __IMPORT_DESCRIPTOR_ADVAPI32 00448a90     advapi32:ADVAPI32.dll
 0002:00009aa4       __IMPORT_DESCRIPTOR_SHELL32 00448aa4     shell32:SHELL32.dll
 0002:00009ab8       __IMPORT_DESCRIPTOR_ole32  00448ab8     ole32:ole32.dll
 0002:00009acc       __IMPORT_DESCRIPTOR_rdHooks 00448acc     rdHooks:rdHooks.dll
 0002:00009ae0       __IMPORT_DESCRIPTOR_omnithread_rtd 00448ae0     omnithread_rtd:omnithread_rtd.dll
 0002:00009af4       __IMPORT_DESCRIPTOR_zlib   00448af4     zlib:zlib.dll
 0002:00009b08       __IMPORT_DESCRIPTOR_MSVCRTD 00448b08     MSVCRTD:MSVCRTD.dll
 0002:00009b1c       __IMPORT_DESCRIPTOR_MSVCP60D 00448b1c     msvcprtd:MSVCP60D.dll
 0002:00009b30       __NULL_IMPORT_DESCRIPTOR   00448b30     wsock32:WSOCK32.dll
 0003:00000000       ___xc_a                    0044b000     MSVCRTD:cinitexe.obj
 0003:0000008c       ___xc_z                    0044b08c     MSVCRTD:cinitexe.obj
 0003:00000090       ___xi_a                    0044b090     MSVCRTD:cinitexe.obj
 0003:00000094       ___xi_z                    0044b094     MSVCRTD:cinitexe.obj
 0003:000009a8       ?__LINE__Var@?1??SendUpdate@rdClient@@IAEHXZ@4FA 0044b9a8     rdClient.obj
 0003:000009ac       ?rd_WINDOWPOS_ATOMNAME@@3PBDB 0044b9ac     rdDesktop.obj
 0003:00000c68       ?MENU_CLASS_NAME@@3PBDB    0044bc68     rdMenu.obj
 0003:00000c70       ?__LINE__Var@?1??InputDesktopSelected@rdService@@SAHXZ@4FA@f70e96ce 0044bc70     rdService.obj
 0003:00000c74       ?rfbInitTrueColourSingleTableFns@@3PAP6AXPAPADPAU_rfbPixelFormat@@1@ZA 0044bc74     translate.obj
 0003:00000c80       ?rfbInitColourMapSingleTableFns@@3PAP6AXPAPADPAU_rfbPixelFormat@@1@ZA 0044bc80     translate.obj
 0003:00000c8c       ?rfbInitTrueColourRGBTablesFns@@3PAP6AXPAPADPAU_rfbPixelFormat@@1@ZA 0044bc8c     translate.obj
 0003:00000c98       ?rfbTranslateWithSingleTableFns@@3PAY02P6AXPADPAU_rfbPixelFormat@@100HHH@ZA 0044bc98     translate.obj
 0003:00000cbc       ?rfbTranslateWithRGBTablesFns@@3PAY02P6AXPADPAU_rfbPixelFormat@@100HHH@ZA 0044bcbc     translate.obj
 0003:00000ce0       ?szAppName@@3PBDB          0044bce0     Winrd.obj
 0003:00000cf0       ___defaultmatherr          0044bcf0     MSVCRTD:merr.obj
 0003:00000e88       ?RFB_COPYRECT_UPDATE@@3IB  0044be88     rdDesktop.obj
 0003:00000e90       ?RFB_SCREEN_UPDATE@@3IB    0044be90     rdDesktop.obj
 0003:00000e94       ?RFB_MOUSE_UPDATE@@3IB     0044be94     rdDesktop.obj
 0003:00000e98       ?rd_WINDOWPOS_ATOM@@3GA    0044be98     rdDesktop.obj
 0003:00000e9a       ?m_wndClass@@3GA           0044be9a     rdDesktop.obj
 0003:000016f0       ?key_mapper@@3VKeymapper@@A 0044c6f0     rdKeymap.obj
 0003:00001710       ?_Nil@?$_Tree@KU?$pair@$$CBKE@std@@U_Kfn@?$map@KEU?$less@K@std@@V?$allocator@E@2@@2@U?$less@K@2@V?$allocator@E@2@@std@@1PAU_Node@12@A 0044c710     rdKeymap.obj
 0003:00001714       ?_Nilrefs@?$_Tree@KU?$pair@$$CBKE@std@@U_Kfn@?$map@KEU?$less@K@std@@V?$allocator@E@2@@2@U?$less@K@2@V?$allocator@E@2@@std@@1IA 0044c714     rdKeymap.obj
 0003:00001718       ?_Nil@?$_Tree@KU?$pair@$$CBK_N@std@@U_Kfn@?$map@K_NU?$less@K@std@@V?$allocator@_N@2@@2@U?$less@K@2@V?$allocator@_N@2@@std@@1PAU_Node@12@A 0044c718     rdKeymap.obj
 0003:0000171c       ?_Nilrefs@?$_Tree@KU?$pair@$$CBK_N@std@@U_Kfn@?$map@K_NU?$less@K@std@@V?$allocator@_N@2@@2@U?$less@K@2@V?$allocator@_N@2@@std@@1IA 0044c71c     rdKeymap.obj
 0003:00001720       ?MENU_ADD_CLIENT_MSG@@3IB  0044c720     rdMenu.obj
 0003:00001724       ?MENU_SERVICEHELPER_MSG@@3IB 0044c724     rdMenu.obj
 0003:0000172c       ?MENU_PROPERTIES_SHOW@@3IB 0044c72c     rdMenu.obj
 0003:00001730       ?MENU_RELOAD_MSG@@3IB      0044c730     rdMenu.obj
 0003:00001734       ?MENU_ABOUTBOX_SHOW@@3IB   0044c734     rdMenu.obj
 0003:00001738       ?MENU_DEFAULT_PROPERTIES_SHOW@@3IB 0044c738     rdMenu.obj
 0003:00001740       ?g_restore_ActiveDesktop@@3_NA 0044c740     rdMenu.obj
 0003:00001750       ?g_hstatus@@3KA            0044c750     rdService.obj
 0003:00001754       ?init@@3VrdService@@A      0044c754     rdService.obj
 0003:00001758       ?g_srvstatus@@3U_SERVICE_STATUS@@A 0044c758     rdService.obj
 0003:00001774       ?g_version_major@@3KA      0044c774     rdService.obj
 0003:00001778       ?g_errortext@@3PAPADA      0044c778     rdService.obj
 0003:00001b78       ?g_platform_id@@3KA        0044cb78     rdService.obj
 0003:00001b80       ?g_version_minor@@3KA      0044cb80     rdService.obj
 0003:00001b84       ?g_impersonating_user@@3HA 0044cb84     rdService.obj
 0003:00001b88       ?g_error@@3KA              0044cb88     rdService.obj
 0003:00001b8c       ?g_servicethread@@3KA      0044cb8c     rdService.obj
 0003:00001b90       ?g_servicemode@@3HA        0044cb90     rdService.obj
 0003:00001ba0       ?rdlog@@3VLog@@A           0044cba0     stdhdrs.obj
 0003:00001bc4       ?hAppInstance@@3PAUHINSTANCE__@@A 0044cbc4     Winrd.obj
 0003:00001bc8       ?mainthreadId@@3KA         0044cbc8     Winrd.obj
 0003:00001bd0       __dowildcard               0044cbd0     MSVCRTD:wildcard.obj
 0003:00001bd4       __newmode                  0044cbd4     MSVCRTD:_newmode.obj
 0003:00001bd8       __commode                  0044cbd8     MSVCRTD:xncommod.obj
 0003:00001bdc       __fmode                    0044cbdc     MSVCRTD:xtxtmode.obj
 0003:00001be0       __adjust_fdiv              0044cbe0     <common>
 0003:00001be4       ___onexitend               0044cbe4     <common>
 0003:00001be8       ___onexitbegin             0044cbe8     <common>

 entry point at        0001:0003c640

 Static symbols

 0001:0002dd60       _$E8                       0042ed60 f   Winrd.obj
 0001:0002dd80       _$E7                       0042ed80 f   Winrd.obj
 0001:0002cc60       _$E18                      0042dc60 f   VSocket.obj
 0001:0002cc80       _$E17                      0042dc80 f   VSocket.obj
 0001:0002a9e0       ?rfbInitTrueColourSingleTable8@@YAXPAPADPAU_rfbPixelFormat@@1@Z 0042b9e0 f   translate.obj
 0001:0002ab80       ?rfbInitTrueColourRGBTables8@@YAXPAPADPAU_rfbPixelFormat@@1@Z 0042bb80 f   translate.obj
 0001:0002acd0       ?rfbInitOneRGBTable8@@YAXPAEHHHH@Z 0042bcd0 f   translate.obj
 0001:0002ad30       ?rfbInitColourMapSingleTable8@@YAXPAPADPAU_rfbPixelFormat@@1@Z 0042bd30 f   translate.obj
 0001:0002af30       ?rfbTranslateWithSingleTable8to8@@YAXPADPAU_rfbPixelFormat@@100HHH@Z 0042bf30 f   translate.obj
 0001:0002afb0       ?rfbTranslateWithRGBTables8to8@@YAXPADPAU_rfbPixelFormat@@100HHH@Z 0042bfb0 f   translate.obj
 0001:0002b0e0       ?rfbTranslateWithSingleTable16to8@@YAXPADPAU_rfbPixelFormat@@100HHH@Z 0042c0e0 f   translate.obj
 0001:0002b170       ?rfbTranslateWithRGBTables16to8@@YAXPADPAU_rfbPixelFormat@@100HHH@Z 0042c170 f   translate.obj
 0001:0002b2b0       ?rfbTranslateWithSingleTable32to8@@YAXPADPAU_rfbPixelFormat@@100HHH@Z 0042c2b0 f   translate.obj
 0001:0002b330       ?rfbTranslateWithRGBTables32to8@@YAXPADPAU_rfbPixelFormat@@100HHH@Z 0042c330 f   translate.obj
 0001:0002b460       ?rfbInitTrueColourSingleTable16@@YAXPAPADPAU_rfbPixelFormat@@1@Z 0042c460 f   translate.obj
 0001:0002b650       ?rfbInitTrueColourRGBTables16@@YAXPAPADPAU_rfbPixelFormat@@1@Z 0042c650 f   translate.obj
 0001:0002b7a0       ?rfbInitOneRGBTable16@@YAXPAGHHHH@Z 0042c7a0 f   translate.obj
 0001:0002b840       ?rfbInitColourMapSingleTable16@@YAXPAPADPAU_rfbPixelFormat@@1@Z 0042c840 f   translate.obj
 0001:0002baa0       ?rfbTranslateWithSingleTable8to16@@YAXPADPAU_rfbPixelFormat@@100HHH@Z 0042caa0 f   translate.obj
 0001:0002bb30       ?rfbTranslateWithRGBTables8to16@@YAXPADPAU_rfbPixelFormat@@100HHH@Z 0042cb30 f   translate.obj
 0001:0002bc70       ?rfbTranslateWithSingleTable16to16@@YAXPADPAU_rfbPixelFormat@@100HHH@Z 0042cc70 f   translate.obj
 0001:0002bd00       ?rfbTranslateWithRGBTables16to16@@YAXPADPAU_rfbPixelFormat@@100HHH@Z 0042cd00 f   translate.obj
 0001:0002be40       ?rfbTranslateWithSingleTable32to16@@YAXPADPAU_rfbPixelFormat@@100HHH@Z 0042ce40 f   translate.obj
 0001:0002bed0       ?rfbTranslateWithRGBTables32to16@@YAXPADPAU_rfbPixelFormat@@100HHH@Z 0042ced0 f   translate.obj
 0001:0002c000       ?rfbInitTrueColourSingleTable32@@YAXPAPADPAU_rfbPixelFormat@@1@Z 0042d000 f   translate.obj
 0001:0002c210       ?rfbInitTrueColourRGBTables32@@YAXPAPADPAU_rfbPixelFormat@@1@Z 0042d210 f   translate.obj
 0001:0002c360       ?rfbInitOneRGBTable32@@YAXPAKHHHH@Z 0042d360 f   translate.obj
 0001:0002c420       ?rfbInitColourMapSingleTable32@@YAXPAPADPAU_rfbPixelFormat@@1@Z 0042d420 f   translate.obj
 0001:0002c6b0       ?rfbTranslateWithSingleTable8to32@@YAXPADPAU_rfbPixelFormat@@100HHH@Z 0042d6b0 f   translate.obj
 0001:0002c730       ?rfbTranslateWithRGBTables8to32@@YAXPADPAU_rfbPixelFormat@@100HHH@Z 0042d730 f   translate.obj
 0001:0002c860       ?rfbTranslateWithSingleTable16to32@@YAXPADPAU_rfbPixelFormat@@100HHH@Z 0042d860 f   translate.obj
 0001:0002c8f0       ?rfbTranslateWithRGBTables16to32@@YAXPADPAU_rfbPixelFormat@@100HHH@Z 0042d8f0 f   translate.obj
 0001:0002ca30       ?rfbTranslateWithSingleTable32to32@@YAXPADPAU_rfbPixelFormat@@100HHH@Z 0042da30 f   translate.obj
 0001:0002cac0       ?rfbTranslateWithRGBTables32to32@@YAXPADPAU_rfbPixelFormat@@100HHH@Z 0042dac0 f   translate.obj
 0001:0002a950       _$E7                       0042b950 f   stdhdrs.obj
 0001:0002a970       _$E4                       0042b970 f   stdhdrs.obj
 0001:0002a9a0       _$E6                       0042b9a0 f   stdhdrs.obj
 0001:0002a9c0       _$E5                       0042b9c0 f   stdhdrs.obj
 0001:0002a810       _$E8                       0042b810 f   rdTimedMsgBox.obj
 0001:0002a830       _$E7                       0042b830 f   rdTimedMsgBox.obj
 0001:0002a5f0       _$E8                       0042b5f0 f   rdSockConnect.obj
 0001:0002a610       _$E7                       0042b610 f   rdSockConnect.obj
 0001:00028a50       _$E13                      00429a50 f   rdService.obj
 0001:00028a70       _$E12                      00429a70 f   rdService.obj
 0001:00029380       _$E8                       0042a380 f   rdService.obj
 0001:000293a0       _$E7                       0042a3a0 f   rdService.obj
 0001:000246e0       _$E8                       004256e0 f   rdServer.obj
 0001:00024700       _$E7                       00425700 f   rdServer.obj
 0001:00021fe0       _$E8                       00422fe0 f   rdProperties.obj
 0001:00022000       _$E7                       00423000 f   rdProperties.obj
 0001:0001f070       _$E13                      00420070 f   rdMenu.obj
 0001:0001f090       _$E12                      00420090 f   rdMenu.obj
 0001:0001f0b0       _$E16                      004200b0 f   rdMenu.obj
 0001:0001f0d0       _$E15                      004200d0 f   rdMenu.obj
 0001:0001f0f0       _$E19                      004200f0 f   rdMenu.obj
 0001:0001f110       _$E18                      00420110 f   rdMenu.obj
 0001:0001f130       _$E22                      00420130 f   rdMenu.obj
 0001:0001f150       _$E21                      00420150 f   rdMenu.obj
 0001:0001f170       _$E25                      00420170 f   rdMenu.obj
 0001:0001f190       _$E24                      00420190 f   rdMenu.obj
 0001:0001f1b0       _$E28                      004201b0 f   rdMenu.obj
 0001:0001f1d0       _$E27                      004201d0 f   rdMenu.obj
 0001:0001f1f0       _$E31                      004201f0 f   rdMenu.obj
 0001:0001f210       _$E30                      00420210 f   rdMenu.obj
 0001:0001fab0       _$E8                       00420ab0 f   rdMenu.obj
 0001:0001fad0       _$E7                       00420ad0 f   rdMenu.obj
 0001:00020440       ?KillWallpaper@@YAXXZ      00421440 f   rdMenu.obj
 0001:00020470       ?KillActiveDesktop@@YAXXZ  00421470 f   rdMenu.obj
 0001:000205d0       ?RestoreWallpaper@@YAXXZ   004215d0 f   rdMenu.obj
 0001:00020600       ?RestoreActiveDesktop@@YAXXZ 00421600 f   rdMenu.obj
 0001:0001a4c0       _$E11                      0041b4c0 f   rdKeymap.obj
 0001:0001a4e0       _$E8                       0041b4e0 f   rdKeymap.obj
 0001:0001a5d0       _$E10                      0041b5d0 f   rdKeymap.obj
 0001:0001a5f0       _$E9                       0041b5f0 f   rdKeymap.obj
 0001:00019fe0       _$E8                       0041afe0 f   rdHTTPConnect.obj
 0001:0001a000       _$E7                       0041b000 f   rdHTTPConnect.obj
 0001:00018070       _$E8                       00419070 f   rdEncodeZlibHex.obj
 0001:00018090       _$E7                       00419090 f   rdEncodeZlibHex.obj
 0001:000180b0       ?subrectEncode8@@YAIPAE0HHEEH@Z 004190b0 f   rdEncodeZlibHex.obj
 0001:000183a0       ?testColours8@@YAXPAEHPAH100@Z 004193a0 f   rdEncodeZlibHex.obj
 0001:00018940       ?subrectEncode16@@YAIPAGPAEHHGGH@Z 00419940 f   rdEncodeZlibHex.obj
 0001:00018c60       ?testColours16@@YAXPAGHPAH100@Z 00419c60 f   rdEncodeZlibHex.obj
 0001:00019240       ?subrectEncode32@@YAIPAKPAEHHKKH@Z 0041a240 f   rdEncodeZlibHex.obj
 0001:00019560       ?testColours32@@YAXPAKHPAH100@Z 0041a560 f   rdEncodeZlibHex.obj
 0001:00017600       _$E8                       00418600 f   rdEncodeZlib.obj
 0001:00017620       _$E7                       00418620 f   rdEncodeZlib.obj
 0001:00012da0       _$E8                       00413da0 f   rdEncodeTight.obj
 0001:00012dc0       _$E7                       00413dc0 f   rdEncodeTight.obj
 0001:00016df0       ?JpegSetDstManager@@YAXPAUjpeg_compress_struct@@PAEI@Z 00417df0 f   rdEncodeTight.obj
 0001:00016e40       ?JpegInitDestination@@YAXPAUjpeg_compress_struct@@@Z 00417e40 f   rdEncodeTight.obj
 0001:00016e70       ?JpegEmptyOutputBuffer@@YAEPAUjpeg_compress_struct@@@Z 00417e70 f   rdEncodeTight.obj
 0001:00016ea0       ?JpegTermDestination@@YAXPAUjpeg_compress_struct@@@Z 00417ea0 f   rdEncodeTight.obj
 0001:000113d0       _$E8                       004123d0 f   rdEncodeRRE.obj
 0001:000113f0       _$E7                       004123f0 f   rdEncodeRRE.obj
 0001:000117d0       ?subrectEncode8@@YAHPAE0HHH@Z 004127d0 f   rdEncodeRRE.obj
 0001:00011b20       ?subrectEncode16@@YAHPAGPAEHHH@Z 00412b20 f   rdEncodeRRE.obj
 0001:00011e80       ?subrectEncode32@@YAHPAKPAEHHH@Z 00412e80 f   rdEncodeRRE.obj
 0001:000121b0       ?getBgColour@@YAKPADHH@Z   004131b0 f   rdEncodeRRE.obj
 0001:00010740       _$E8                       00411740 f   rdEncoder.obj
 0001:00010760       _$E7                       00411760 f   rdEncoder.obj
 0001:0000e870       ?subrectEncode8@@YAIPAE0HHEEH@Z 0040f870 f   rdEncodeHexT.obj
 0001:0000eb60       ?testColours8@@YAXPAEHPAH100@Z 0040fb60 f   rdEncodeHexT.obj
 0001:0000ec40       _$E8                       0040fc40 f   rdEncodeHexT.obj
 0001:0000ec60       _$E7                       0040fc60 f   rdEncodeHexT.obj
 0001:0000ef80       ?subrectEncode16@@YAIPAGPAEHHGGH@Z 0040ff80 f   rdEncodeHexT.obj
 0001:0000f2a0       ?testColours16@@YAXPAGHPAH100@Z 004102a0 f   rdEncodeHexT.obj
 0001:0000f6c0       ?subrectEncode32@@YAIPAKPAEHHKKH@Z 004106c0 f   rdEncodeHexT.obj
 0001:0000f9e0       ?testColours32@@YAXPAKHPAH100@Z 004109e0 f   rdEncodeHexT.obj
 0001:0000d710       _$E8                       0040e710 f   rdEncodeCoRRE.obj
 0001:0000d730       _$E7                       0040e730 f   rdEncodeCoRRE.obj
 0001:0000d750       ?Max@@YAHHH@Z              0040e750 f   rdEncodeCoRRE.obj
 0001:0000d770       ?Min@@YAHHH@Z              0040e770 f   rdEncodeCoRRE.obj
 0001:0000d790       ?subrectEncode8@@YAHPAE0HHH@Z 0040e790 f   rdEncodeCoRRE.obj
 0001:0000da90       ?subrectEncode16@@YAHPAGPAEHHH@Z 0040ea90 f   rdEncodeCoRRE.obj
 0001:0000dda0       ?subrectEncode32@@YAHPAKPAEHHH@Z 0040eda0 f   rdEncodeCoRRE.obj
 0001:0000e080       ?getBgColour@@YAKPADHH@Z   0040f080 f   rdEncodeCoRRE.obj
 0001:00009dd0       _$E29                      0040add0 f   rdDesktop.obj
 0001:00009df0       _$E28                      0040adf0 f   rdDesktop.obj
 0001:00009e10       _$E32                      0040ae10 f   rdDesktop.obj
 0001:00009e30       _$E31                      0040ae30 f   rdDesktop.obj
 0001:00009e50       _$E35                      0040ae50 f   rdDesktop.obj
 0001:00009e70       _$E34                      0040ae70 f   rdDesktop.obj
 0001:0000a780       _$E8                       0040b780 f   rdDesktop.obj
 0001:0000a7a0       _$E7                       0040b7a0 f   rdDesktop.obj
 0001:00009d90       _$E8                       0040ad90 f   rdConnDialog.obj
 0001:00009db0       _$E7                       0040adb0 f   rdConnDialog.obj
 0001:000053b0       _$E8                       004063b0 f   rdClient.obj
 0001:000053d0       _$E7                       004063d0 f   rdClient.obj
 0001:00003930       _$E8                       00404930 f   rdBuffer.obj
 0001:00003950       _$E7                       00404950 f   rdBuffer.obj
 0001:00003970       ?Min@@YAHHH@Z              00404970 f   rdBuffer.obj
 0001:00002290       _$E8                       00403290 f   rdAdvancedProperties.obj
 0001:000022b0       _$E7                       004032b0 f   rdAdvancedProperties.obj
 0001:00000220       _cookey                    00401220 f   d3des.obj
 0001:00000450       _scrunch                   00401450 f   d3des.obj
 0001:00000580       _unscrun                   00401580 f   d3des.obj
 0001:00000670       _desfunc                   00401670 f   d3des.obj
 0001:0003a350       _initial_setup             0043b350 f   libjpeg:jcmaster.obj
 0001:0003a6e0       _validate_script           0043b6e0 f   libjpeg:jcmaster.obj
 0001:0003acd0       _prepare_for_pass          0043bcd0 f   libjpeg:jcmaster.obj
 0001:0003b010       _select_scan_parameters    0043c010 f   libjpeg:jcmaster.obj
 0001:0003b1c0       _per_scan_setup            0043c1c0 f   libjpeg:jcmaster.obj
 0001:0003b4e0       _pass_startup              0043c4e0 f   libjpeg:jcmaster.obj
 0001:0003b550       _finish_pass_master        0043c550 f   libjpeg:jcmaster.obj
 0001:00039b00       _rgb_ycc_start             0043ab00 f   libjpeg:jccolor.obj
 0001:00039c40       _rgb_ycc_convert           0043ac40 f   libjpeg:jccolor.obj
 0001:00039dc0       _rgb_gray_convert          0043adc0 f   libjpeg:jccolor.obj
 0001:00039eb0       _cmyk_ycck_convert         0043aeb0 f   libjpeg:jccolor.obj
 0001:0003a060       _grayscale_convert         0043b060 f   libjpeg:jccolor.obj
 0001:0003a100       _null_convert              0043b100 f   libjpeg:jccolor.obj
 0001:0003a1d0       _null_method               0043b1d0 f   libjpeg:jccolor.obj
 0001:00038ab0       _start_pass_downsample     00439ab0 f   libjpeg:jcsample.obj
 0001:00038ad0       _sep_downsample            00439ad0 f   libjpeg:jcsample.obj
 0001:00038b90       _int_downsample            00439b90 f   libjpeg:jcsample.obj
 0001:00038d20       _expand_right_edge         00439d20 f   libjpeg:jcsample.obj
 0001:00038db0       _fullsize_downsample       00439db0 f   libjpeg:jcsample.obj
 0001:00038e30       _h2v1_downsample           00439e30 f   libjpeg:jcsample.obj
 0001:00038f20       _h2v2_downsample           00439f20 f   libjpeg:jcsample.obj
 0001:00039050       _h2v2_smooth_downsample    0043a050 f   libjpeg:jcsample.obj
 0001:00039430       _fullsize_smooth_downsample 0043a430 f   libjpeg:jcsample.obj
 0001:000380e0       _start_pass_prep           004390e0 f   libjpeg:jcprepct.obj
 0001:00038170       _pre_process_data          00439170 f   libjpeg:jcprepct.obj
 0001:000383b0       _expand_bottom_edge        004393b0 f   libjpeg:jcprepct.obj
 0001:00038420       _pre_process_context       00439420 f   libjpeg:jcprepct.obj
 0001:000386c0       _create_context_buffer     004396c0 f   libjpeg:jcprepct.obj
 0001:00037540       _start_pass_fdctmgr        00438540 f   libjpeg:jcdctmgr.obj
 0001:00037830       _forward_DCT               00438830 f   libjpeg:jcdctmgr.obj
 0001:00037c10       _forward_DCT_float         00438c10 f   libjpeg:jcdctmgr.obj
 0001:00036100       _start_pass_phuff          00437100 f   libjpeg:jcphuff.obj
 0001:00036380       _encode_mcu_DC_first       00437380 f   libjpeg:jcphuff.obj
 0001:00036590       _emit_bits                 00437590 f   libjpeg:jcphuff.obj
 0001:00036710       _dump_buffer               00437710 f   libjpeg:jcphuff.obj
 0001:000367b0       _emit_symbol               004377b0 f   libjpeg:jcphuff.obj
 0001:00036840       _emit_restart              00437840 f   libjpeg:jcphuff.obj
 0001:00036970       _flush_bits                00437970 f   libjpeg:jcphuff.obj
 0001:000369c0       _emit_eobrun               004379c0 f   libjpeg:jcphuff.obj
 0001:00036ac0       _emit_buffered_bits        00437ac0 f   libjpeg:jcphuff.obj
 0001:00036b30       _encode_mcu_AC_first       00437b30 f   libjpeg:jcphuff.obj
 0001:00036dc0       _encode_mcu_DC_refine      00437dc0 f   libjpeg:jcphuff.obj
 0001:00036f10       _encode_mcu_AC_refine      00437f10 f   libjpeg:jcphuff.obj
 0001:00037250       _finish_pass_phuff         00438250 f   libjpeg:jcphuff.obj
 0001:000372e0       _finish_pass_gather_phuff  004382e0 f   libjpeg:jcphuff.obj
 0001:00035110       _start_pass_huff           00436110 f   libjpeg:jchuff.obj
 0001:00035370       _encode_mcu_huff           00436370 f   libjpeg:jchuff.obj
 0001:00035530       _encode_one_block          00436530 f   libjpeg:jchuff.obj
 0001:000357d0       _emit_bits                 004367d0 f   libjpeg:jchuff.obj
 0001:00035950       _dump_buffer               00436950 f   libjpeg:jchuff.obj
 0001:000359d0       _emit_restart              004369d0 f   libjpeg:jchuff.obj
 0001:00035af0       _flush_bits                00436af0 f   libjpeg:jchuff.obj
 0001:00035b50       _finish_pass_huff          00436b50 f   libjpeg:jchuff.obj
 0001:00035c20       _encode_mcu_gather         00436c20 f   libjpeg:jchuff.obj
 0001:00035d60       _htest_one_block           00436d60 f   libjpeg:jchuff.obj
 0001:00035f10       _finish_pass_gather        00436f10 f   libjpeg:jchuff.obj
 0001:00033e30       _start_pass_coef           00434e30 f   libjpeg:jccoefct.obj
 0001:00033f70       _start_iMCU_row            00434f70 f   libjpeg:jccoefct.obj
 0001:00034010       _compress_data             00435010 f   libjpeg:jccoefct.obj
 0001:00034300       _compress_first_pass       00435300 f   libjpeg:jccoefct.obj
 0001:000345f0       _compress_output           004355f0 f   libjpeg:jccoefct.obj
 0001:00033af0       _start_pass_main           00434af0 f   libjpeg:jcmainct.obj
 0001:00033ba0       _process_data_simple_main  00434ba0 f   libjpeg:jcmainct.obj
 0001:000325c0       _write_marker_header       004335c0 f   libjpeg:jcmarker.obj
 0001:00032640       _emit_marker               00433640 f   libjpeg:jcmarker.obj
 0001:00032690       _emit_byte                 00433690 f   libjpeg:jcmarker.obj
 0001:00032740       _emit_2bytes               00433740 f   libjpeg:jcmarker.obj
 0001:000327a0       _write_marker_byte         004337a0 f   libjpeg:jcmarker.obj
 0001:000327e0       _write_file_header         004337e0 f   libjpeg:jcmarker.obj
 0001:00032870       _emit_jfif_app0            00433870 f   libjpeg:jcmarker.obj
 0001:000329a0       _emit_adobe_app14          004339a0 f   libjpeg:jcmarker.obj
 0001:00032aa0       _write_frame_header        00433aa0 f   libjpeg:jcmarker.obj
 0001:00032c50       _emit_dqt                  00433c50 f   libjpeg:jcmarker.obj
 0001:00032dc0       _emit_sof                  00433dc0 f   libjpeg:jcmarker.obj
 0001:00032f20       _write_scan_header         00433f20 f   libjpeg:jcmarker.obj
 0001:00033070       _emit_dht                  00434070 f   libjpeg:jcmarker.obj
 0001:000331f0       _emit_dac                  004341f0 f   libjpeg:jcmarker.obj
 0001:00033210       _emit_dri                  00434210 f   libjpeg:jcmarker.obj
 0001:00033270       _emit_sos                  00434270 f   libjpeg:jcmarker.obj
 0001:000333f0       _write_file_trailer        004343f0 f   libjpeg:jcmarker.obj
 0001:00033430       _write_tables_only         00434430 f   libjpeg:jcmarker.obj
 0001:00030eb0       _alloc_small               00431eb0 f   libjpeg:jmemmgr.obj
 0001:000310a0       _out_of_memory             004320a0 f   libjpeg:jmemmgr.obj
 0001:00031100       _alloc_large               00432100 f   libjpeg:jmemmgr.obj
 0001:00031220       _alloc_sarray              00432220 f   libjpeg:jmemmgr.obj
 0001:00031350       _alloc_barray              00432350 f   libjpeg:jmemmgr.obj
 0001:00031490       _request_virt_sarray       00432490 f   libjpeg:jmemmgr.obj
 0001:00031560       _request_virt_barray       00432560 f   libjpeg:jmemmgr.obj
 0001:00031630       _realize_virt_arrays       00432630 f   libjpeg:jmemmgr.obj
 0001:00031920       _access_virt_sarray        00432920 f   libjpeg:jmemmgr.obj
 0001:00031b70       _do_sarray_io              00432b70 f   libjpeg:jmemmgr.obj
 0001:00031d00       _access_virt_barray        00432d00 f   libjpeg:jmemmgr.obj
 0001:00031f50       _do_barray_io              00432f50 f   libjpeg:jmemmgr.obj
 0001:000320e0       _free_pool                 004330e0 f   libjpeg:jmemmgr.obj
 0001:000322d0       _self_destruct             004332d0 f   libjpeg:jmemmgr.obj
 0001:00030960       _error_exit                00431960 f   libjpeg:jerror.obj
 0001:000309c0       _output_message            004319c0 f   libjpeg:jerror.obj
 0001:00030a30       _emit_message              00431a30 f   libjpeg:jerror.obj
 0001:00030ad0       _format_message            00431ad0 f   libjpeg:jerror.obj
 0001:00030c30       _reset_error_mgr           00431c30 f   libjpeg:jerror.obj
 0001:0002fb70       _std_huff_tables           00430b70 f   libjpeg:jcparam.obj
 0001:0002fc10       _add_huff_table            00430c10 f   libjpeg:jcparam.obj
 0001:00030700       _fill_a_scan               00431700 f   libjpeg:jcparam.obj
 0001:00030770       _fill_scans                00431770 f   libjpeg:jcparam.obj
 0001:000307f0       _fill_dc_scans             004317f0 f   libjpeg:jcparam.obj
 0001:0003c5a1       L1                         0043d5a1 f   MSVCRTD:lldiv.obj
 0001:0003c5bd       L2                         0043d5bd f   MSVCRTD:lldiv.obj
 0001:0003c5d9       L3                         0043d5d9 f   MSVCRTD:lldiv.obj
 0001:0003c5e7       L5                         0043d5e7 f   MSVCRTD:lldiv.obj
 0001:0003c615       L6                         0043d615 f   MSVCRTD:lldiv.obj
 0001:0003c616       L7                         0043d616 f   MSVCRTD:lldiv.obj
 0001:0003c61a       L4                         0043d61a f   MSVCRTD:lldiv.obj
 0001:0003c624       L8                         0043d624 f   MSVCRTD:lldiv.obj
 0001:0003c4e0       _$$$00001                  0043d4e0 f   MSVCRTD:chkstk.obj
 0001:0003c4ec       probepages                 0043d4ec f   MSVCRTD:chkstk.obj
 0001:0003c500       lastpage                   0043d500 f   MSVCRTD:chkstk.obj
 0001:0003c3e0       ?ArrayUnwindFilter@@YAHPAU_EXCEPTION_POINTERS@@@Z 0043d3e0 f   MSVCRTD:ehvecdtr.obj
